ARM GAS  C:\Users\Kuanysh\AppData\Local\Temp\ccHztPRo.s 			page 1


   1              		.cpu cortex-m3
   2              		.arch armv7-m
   3              		.fpu softvfp
   4              		.eabi_attribute 20, 1
   5              		.eabi_attribute 21, 1
   6              		.eabi_attribute 23, 3
   7              		.eabi_attribute 24, 1
   8              		.eabi_attribute 25, 1
   9              		.eabi_attribute 26, 1
  10              		.eabi_attribute 30, 1
  11              		.eabi_attribute 34, 1
  12              		.eabi_attribute 18, 4
  13              		.file	"usbd_midi.c"
  14              		.text
  15              	.Ltext0:
  16              		.cfi_sections	.debug_frame
  17              		.section	.text.USBD_MIDI_GetCfgDesc,"ax",%progbits
  18              		.align	1
  19              		.syntax unified
  20              		.thumb
  21              		.thumb_func
  23              	USBD_MIDI_GetCfgDesc:
  24              	.LVL0:
  25              	.LFB74:
  26              		.file 1 "Middlewares/ST/STM32_USB_Device_Library/Class/MIDI/Src/usbd_midi.c"
   1:Middlewares/ST/STM32_USB_Device_Library/Class/MIDI/Src/usbd_midi.c **** /**
   2:Middlewares/ST/STM32_USB_Device_Library/Class/MIDI/Src/usbd_midi.c ****   ******************************************************************************
   3:Middlewares/ST/STM32_USB_Device_Library/Class/MIDI/Src/usbd_midi.c ****   * @file    usbd_midi.c
   4:Middlewares/ST/STM32_USB_Device_Library/Class/MIDI/Src/usbd_midi.c ****   * @author  Illia Pikin; MCD Application Team
   5:Middlewares/ST/STM32_USB_Device_Library/Class/MIDI/Src/usbd_midi.c ****   * @brief   This file provides the MIDI core functions.
   6:Middlewares/ST/STM32_USB_Device_Library/Class/MIDI/Src/usbd_midi.c ****   *
   7:Middlewares/ST/STM32_USB_Device_Library/Class/MIDI/Src/usbd_midi.c ****   * @verbatim
   8:Middlewares/ST/STM32_USB_Device_Library/Class/MIDI/Src/usbd_midi.c ****   *      
   9:Middlewares/ST/STM32_USB_Device_Library/Class/MIDI/Src/usbd_midi.c ****   *          ===================================================================      
  10:Middlewares/ST/STM32_USB_Device_Library/Class/MIDI/Src/usbd_midi.c ****   *                                MIDI Class  Description
  11:Middlewares/ST/STM32_USB_Device_Library/Class/MIDI/Src/usbd_midi.c ****   *          =================================================================== 
  12:Middlewares/ST/STM32_USB_Device_Library/Class/MIDI/Src/usbd_midi.c ****   *           This module manages the MIDI class V1.0 following the "Universal Serial Bus
  13:Middlewares/ST/STM32_USB_Device_Library/Class/MIDI/Src/usbd_midi.c ****   *           Device Class Definition for MIDI Devices. Release 1.0 Nov 1, 1999".
  14:Middlewares/ST/STM32_USB_Device_Library/Class/MIDI/Src/usbd_midi.c ****   *      
  15:Middlewares/ST/STM32_USB_Device_Library/Class/MIDI/Src/usbd_midi.c ****   * @note     In HS mode and when the DMA is used, all variables and data structures
  16:Middlewares/ST/STM32_USB_Device_Library/Class/MIDI/Src/usbd_midi.c ****   *           dealing with the DMA during the transaction process should be 32-bit aligned.
  17:Middlewares/ST/STM32_USB_Device_Library/Class/MIDI/Src/usbd_midi.c ****   *           
  18:Middlewares/ST/STM32_USB_Device_Library/Class/MIDI/Src/usbd_midi.c ****   *      
  19:Middlewares/ST/STM32_USB_Device_Library/Class/MIDI/Src/usbd_midi.c ****   *  @endverbatim
  20:Middlewares/ST/STM32_USB_Device_Library/Class/MIDI/Src/usbd_midi.c ****   *
  21:Middlewares/ST/STM32_USB_Device_Library/Class/MIDI/Src/usbd_midi.c ****   ******************************************************************************
  22:Middlewares/ST/STM32_USB_Device_Library/Class/MIDI/Src/usbd_midi.c ****   * @attention
  23:Middlewares/ST/STM32_USB_Device_Library/Class/MIDI/Src/usbd_midi.c ****   *
  24:Middlewares/ST/STM32_USB_Device_Library/Class/MIDI/Src/usbd_midi.c ****   * <h2><center>&copy; COPYRIGHT 2022 Illia Pikin</center></h2>
  25:Middlewares/ST/STM32_USB_Device_Library/Class/MIDI/Src/usbd_midi.c ****   * <h2><center>&copy; COPYRIGHT 2014 STMicroelectronics</center></h2>
  26:Middlewares/ST/STM32_USB_Device_Library/Class/MIDI/Src/usbd_midi.c ****   *
  27:Middlewares/ST/STM32_USB_Device_Library/Class/MIDI/Src/usbd_midi.c ****   * Licensed under MCD-ST Liberty SW License Agreement V2, (the "License");
  28:Middlewares/ST/STM32_USB_Device_Library/Class/MIDI/Src/usbd_midi.c ****   * You may not use this file except in compliance with the License.
  29:Middlewares/ST/STM32_USB_Device_Library/Class/MIDI/Src/usbd_midi.c ****   * You may obtain a copy of the License at:
  30:Middlewares/ST/STM32_USB_Device_Library/Class/MIDI/Src/usbd_midi.c ****   *
  31:Middlewares/ST/STM32_USB_Device_Library/Class/MIDI/Src/usbd_midi.c ****   *        http://www.st.com/software_license_agreement_liberty_v2
  32:Middlewares/ST/STM32_USB_Device_Library/Class/MIDI/Src/usbd_midi.c ****   *
ARM GAS  C:\Users\Kuanysh\AppData\Local\Temp\ccHztPRo.s 			page 2


  33:Middlewares/ST/STM32_USB_Device_Library/Class/MIDI/Src/usbd_midi.c ****   * Unless required by applicable law or agreed to in writing, software 
  34:Middlewares/ST/STM32_USB_Device_Library/Class/MIDI/Src/usbd_midi.c ****   * distributed under the License is distributed on an "AS IS" BASIS, 
  35:Middlewares/ST/STM32_USB_Device_Library/Class/MIDI/Src/usbd_midi.c ****   * WITHOUT WARRANTIES OR CONDITIONS OF ANY KIND, either express or implied.
  36:Middlewares/ST/STM32_USB_Device_Library/Class/MIDI/Src/usbd_midi.c ****   * See the License for the specific language governing permissions and
  37:Middlewares/ST/STM32_USB_Device_Library/Class/MIDI/Src/usbd_midi.c ****   * limitations under the License.
  38:Middlewares/ST/STM32_USB_Device_Library/Class/MIDI/Src/usbd_midi.c ****   *
  39:Middlewares/ST/STM32_USB_Device_Library/Class/MIDI/Src/usbd_midi.c ****   ******************************************************************************
  40:Middlewares/ST/STM32_USB_Device_Library/Class/MIDI/Src/usbd_midi.c ****   */ 
  41:Middlewares/ST/STM32_USB_Device_Library/Class/MIDI/Src/usbd_midi.c **** 
  42:Middlewares/ST/STM32_USB_Device_Library/Class/MIDI/Src/usbd_midi.c **** /* Includes ------------------------------------------------------------------*/
  43:Middlewares/ST/STM32_USB_Device_Library/Class/MIDI/Src/usbd_midi.c **** #include "usbd_midi.h"
  44:Middlewares/ST/STM32_USB_Device_Library/Class/MIDI/Src/usbd_midi.c **** #include "usbd_desc.h"
  45:Middlewares/ST/STM32_USB_Device_Library/Class/MIDI/Src/usbd_midi.c **** #include "usbd_ctlreq.h"
  46:Middlewares/ST/STM32_USB_Device_Library/Class/MIDI/Src/usbd_midi.c **** 
  47:Middlewares/ST/STM32_USB_Device_Library/Class/MIDI/Src/usbd_midi.c **** 
  48:Middlewares/ST/STM32_USB_Device_Library/Class/MIDI/Src/usbd_midi.c **** /** @addtogroup STM32_USB_OTG_DEVICE_LIBRARY
  49:Middlewares/ST/STM32_USB_Device_Library/Class/MIDI/Src/usbd_midi.c ****   * @{
  50:Middlewares/ST/STM32_USB_Device_Library/Class/MIDI/Src/usbd_midi.c ****   */
  51:Middlewares/ST/STM32_USB_Device_Library/Class/MIDI/Src/usbd_midi.c **** 
  52:Middlewares/ST/STM32_USB_Device_Library/Class/MIDI/Src/usbd_midi.c **** 
  53:Middlewares/ST/STM32_USB_Device_Library/Class/MIDI/Src/usbd_midi.c **** /** @defgroup USBD_MIDI 
  54:Middlewares/ST/STM32_USB_Device_Library/Class/MIDI/Src/usbd_midi.c ****   * @brief usbd core module
  55:Middlewares/ST/STM32_USB_Device_Library/Class/MIDI/Src/usbd_midi.c ****   * @{
  56:Middlewares/ST/STM32_USB_Device_Library/Class/MIDI/Src/usbd_midi.c ****   */ 
  57:Middlewares/ST/STM32_USB_Device_Library/Class/MIDI/Src/usbd_midi.c **** 
  58:Middlewares/ST/STM32_USB_Device_Library/Class/MIDI/Src/usbd_midi.c **** /** @defgroup USBD_MIDI_Private_TypesDefinitions
  59:Middlewares/ST/STM32_USB_Device_Library/Class/MIDI/Src/usbd_midi.c ****   * @{
  60:Middlewares/ST/STM32_USB_Device_Library/Class/MIDI/Src/usbd_midi.c ****   */ 
  61:Middlewares/ST/STM32_USB_Device_Library/Class/MIDI/Src/usbd_midi.c **** /**
  62:Middlewares/ST/STM32_USB_Device_Library/Class/MIDI/Src/usbd_midi.c ****   * @}
  63:Middlewares/ST/STM32_USB_Device_Library/Class/MIDI/Src/usbd_midi.c ****   */ 
  64:Middlewares/ST/STM32_USB_Device_Library/Class/MIDI/Src/usbd_midi.c **** 
  65:Middlewares/ST/STM32_USB_Device_Library/Class/MIDI/Src/usbd_midi.c **** 
  66:Middlewares/ST/STM32_USB_Device_Library/Class/MIDI/Src/usbd_midi.c **** /** @defgroup USBD_MIDI_Private_Defines
  67:Middlewares/ST/STM32_USB_Device_Library/Class/MIDI/Src/usbd_midi.c ****   * @{
  68:Middlewares/ST/STM32_USB_Device_Library/Class/MIDI/Src/usbd_midi.c ****   */ 
  69:Middlewares/ST/STM32_USB_Device_Library/Class/MIDI/Src/usbd_midi.c **** 
  70:Middlewares/ST/STM32_USB_Device_Library/Class/MIDI/Src/usbd_midi.c **** /**
  71:Middlewares/ST/STM32_USB_Device_Library/Class/MIDI/Src/usbd_midi.c ****   * @}
  72:Middlewares/ST/STM32_USB_Device_Library/Class/MIDI/Src/usbd_midi.c ****   */ 
  73:Middlewares/ST/STM32_USB_Device_Library/Class/MIDI/Src/usbd_midi.c **** 
  74:Middlewares/ST/STM32_USB_Device_Library/Class/MIDI/Src/usbd_midi.c **** 
  75:Middlewares/ST/STM32_USB_Device_Library/Class/MIDI/Src/usbd_midi.c **** /** @defgroup USBD_MIDI_Private_Macros
  76:Middlewares/ST/STM32_USB_Device_Library/Class/MIDI/Src/usbd_midi.c ****   * @{
  77:Middlewares/ST/STM32_USB_Device_Library/Class/MIDI/Src/usbd_midi.c ****   */ 
  78:Middlewares/ST/STM32_USB_Device_Library/Class/MIDI/Src/usbd_midi.c **** /**
  79:Middlewares/ST/STM32_USB_Device_Library/Class/MIDI/Src/usbd_midi.c ****   * @}
  80:Middlewares/ST/STM32_USB_Device_Library/Class/MIDI/Src/usbd_midi.c ****   */ 
  81:Middlewares/ST/STM32_USB_Device_Library/Class/MIDI/Src/usbd_midi.c **** 
  82:Middlewares/ST/STM32_USB_Device_Library/Class/MIDI/Src/usbd_midi.c **** 
  83:Middlewares/ST/STM32_USB_Device_Library/Class/MIDI/Src/usbd_midi.c **** 
  84:Middlewares/ST/STM32_USB_Device_Library/Class/MIDI/Src/usbd_midi.c **** 
  85:Middlewares/ST/STM32_USB_Device_Library/Class/MIDI/Src/usbd_midi.c **** /** @defgroup USBD_MIDI_Private_FunctionPrototypes
  86:Middlewares/ST/STM32_USB_Device_Library/Class/MIDI/Src/usbd_midi.c ****   * @{
  87:Middlewares/ST/STM32_USB_Device_Library/Class/MIDI/Src/usbd_midi.c ****   */
  88:Middlewares/ST/STM32_USB_Device_Library/Class/MIDI/Src/usbd_midi.c **** 
  89:Middlewares/ST/STM32_USB_Device_Library/Class/MIDI/Src/usbd_midi.c **** static uint8_t  USBD_MIDI_Init (USBD_HandleTypeDef *pdev, uint8_t cfgidx);
ARM GAS  C:\Users\Kuanysh\AppData\Local\Temp\ccHztPRo.s 			page 3


  90:Middlewares/ST/STM32_USB_Device_Library/Class/MIDI/Src/usbd_midi.c **** static uint8_t  USBD_MIDI_DeInit (USBD_HandleTypeDef *pdev, uint8_t cfgidx);
  91:Middlewares/ST/STM32_USB_Device_Library/Class/MIDI/Src/usbd_midi.c **** static uint8_t  USBD_MIDI_Setup (USBD_HandleTypeDef *pdev, USBD_SetupReqTypedef *req);
  92:Middlewares/ST/STM32_USB_Device_Library/Class/MIDI/Src/usbd_midi.c **** static uint8_t  *USBD_MIDI_GetCfgDesc (uint16_t *length);
  93:Middlewares/ST/STM32_USB_Device_Library/Class/MIDI/Src/usbd_midi.c **** static uint8_t  *USBD_MIDI_GetDeviceQualifierDesc (uint16_t *length);
  94:Middlewares/ST/STM32_USB_Device_Library/Class/MIDI/Src/usbd_midi.c **** static uint8_t  USBD_MIDI_DataIn (USBD_HandleTypeDef *pdev, uint8_t epnum);
  95:Middlewares/ST/STM32_USB_Device_Library/Class/MIDI/Src/usbd_midi.c **** static uint8_t  USBD_MIDI_DataOut (USBD_HandleTypeDef *pdev, uint8_t epnum);
  96:Middlewares/ST/STM32_USB_Device_Library/Class/MIDI/Src/usbd_midi.c **** /**
  97:Middlewares/ST/STM32_USB_Device_Library/Class/MIDI/Src/usbd_midi.c ****   * @}
  98:Middlewares/ST/STM32_USB_Device_Library/Class/MIDI/Src/usbd_midi.c ****   */ 
  99:Middlewares/ST/STM32_USB_Device_Library/Class/MIDI/Src/usbd_midi.c **** 
 100:Middlewares/ST/STM32_USB_Device_Library/Class/MIDI/Src/usbd_midi.c **** /** @defgroup USBD_MIDI_Private_Variables
 101:Middlewares/ST/STM32_USB_Device_Library/Class/MIDI/Src/usbd_midi.c ****   * @{
 102:Middlewares/ST/STM32_USB_Device_Library/Class/MIDI/Src/usbd_midi.c ****   */ 
 103:Middlewares/ST/STM32_USB_Device_Library/Class/MIDI/Src/usbd_midi.c **** 
 104:Middlewares/ST/STM32_USB_Device_Library/Class/MIDI/Src/usbd_midi.c **** static uint8_t usb_rx_buffer[MIDI_EPOUT_SIZE] = {0};
 105:Middlewares/ST/STM32_USB_Device_Library/Class/MIDI/Src/usbd_midi.c **** 
 106:Middlewares/ST/STM32_USB_Device_Library/Class/MIDI/Src/usbd_midi.c **** 
 107:Middlewares/ST/STM32_USB_Device_Library/Class/MIDI/Src/usbd_midi.c **** /* USB MIDI class type definition */
 108:Middlewares/ST/STM32_USB_Device_Library/Class/MIDI/Src/usbd_midi.c **** USBD_ClassTypeDef  USBD_MIDI = 
 109:Middlewares/ST/STM32_USB_Device_Library/Class/MIDI/Src/usbd_midi.c **** {
 110:Middlewares/ST/STM32_USB_Device_Library/Class/MIDI/Src/usbd_midi.c ****   USBD_MIDI_Init,
 111:Middlewares/ST/STM32_USB_Device_Library/Class/MIDI/Src/usbd_midi.c ****   USBD_MIDI_DeInit,
 112:Middlewares/ST/STM32_USB_Device_Library/Class/MIDI/Src/usbd_midi.c ****   USBD_MIDI_Setup,
 113:Middlewares/ST/STM32_USB_Device_Library/Class/MIDI/Src/usbd_midi.c ****   NULL, /*EP0_TxSent*/  
 114:Middlewares/ST/STM32_USB_Device_Library/Class/MIDI/Src/usbd_midi.c ****   NULL, /*EP0_RxReady*/
 115:Middlewares/ST/STM32_USB_Device_Library/Class/MIDI/Src/usbd_midi.c ****   USBD_MIDI_DataIn, /*DataIn*/
 116:Middlewares/ST/STM32_USB_Device_Library/Class/MIDI/Src/usbd_midi.c ****   USBD_MIDI_DataOut, /*DataOut*/
 117:Middlewares/ST/STM32_USB_Device_Library/Class/MIDI/Src/usbd_midi.c ****   NULL, /*SOF */
 118:Middlewares/ST/STM32_USB_Device_Library/Class/MIDI/Src/usbd_midi.c ****   NULL,
 119:Middlewares/ST/STM32_USB_Device_Library/Class/MIDI/Src/usbd_midi.c ****   NULL,      
 120:Middlewares/ST/STM32_USB_Device_Library/Class/MIDI/Src/usbd_midi.c ****   USBD_MIDI_GetCfgDesc,
 121:Middlewares/ST/STM32_USB_Device_Library/Class/MIDI/Src/usbd_midi.c ****   USBD_MIDI_GetCfgDesc, 
 122:Middlewares/ST/STM32_USB_Device_Library/Class/MIDI/Src/usbd_midi.c ****   USBD_MIDI_GetCfgDesc,
 123:Middlewares/ST/STM32_USB_Device_Library/Class/MIDI/Src/usbd_midi.c ****   USBD_MIDI_GetDeviceQualifierDesc,
 124:Middlewares/ST/STM32_USB_Device_Library/Class/MIDI/Src/usbd_midi.c **** };
 125:Middlewares/ST/STM32_USB_Device_Library/Class/MIDI/Src/usbd_midi.c **** 
 126:Middlewares/ST/STM32_USB_Device_Library/Class/MIDI/Src/usbd_midi.c **** /* USB MIDI device Configuration Descriptor */
 127:Middlewares/ST/STM32_USB_Device_Library/Class/MIDI/Src/usbd_midi.c **** __ALIGN_BEGIN static uint8_t USBD_MIDI_CfgDesc[USB_MIDI_CONFIG_DESC_SIZE]  __ALIGN_END =
 128:Middlewares/ST/STM32_USB_Device_Library/Class/MIDI/Src/usbd_midi.c **** {
 129:Middlewares/ST/STM32_USB_Device_Library/Class/MIDI/Src/usbd_midi.c ****   0x09,                       /* bLength: Configuration Descriptor size */
 130:Middlewares/ST/STM32_USB_Device_Library/Class/MIDI/Src/usbd_midi.c ****   USB_DESC_TYPE_CONFIGURATION,/* bDescriptorType: Configuration */
 131:Middlewares/ST/STM32_USB_Device_Library/Class/MIDI/Src/usbd_midi.c ****   USB_MIDI_CONFIG_DESC_SIZE,
 132:Middlewares/ST/STM32_USB_Device_Library/Class/MIDI/Src/usbd_midi.c ****   0x00,                       /*Length of the total configuration block, including this descriptor,
 133:Middlewares/ST/STM32_USB_Device_Library/Class/MIDI/Src/usbd_midi.c ****   0x01,                       /*bNumInterfaces: 1 interface*/
 134:Middlewares/ST/STM32_USB_Device_Library/Class/MIDI/Src/usbd_midi.c ****   0x01,                       /*bConfigurationValue: ID of this configuration. */
 135:Middlewares/ST/STM32_USB_Device_Library/Class/MIDI/Src/usbd_midi.c ****   0x00,                       /*iConfiguration: Index of string descriptor describing the configura
 136:Middlewares/ST/STM32_USB_Device_Library/Class/MIDI/Src/usbd_midi.c ****   0x80,                       /*bmAttributes: Bus Powered device, not Self Powered, no Remote wakeu
 137:Middlewares/ST/STM32_USB_Device_Library/Class/MIDI/Src/usbd_midi.c ****   0xFA,                       /*MaxPower 500 mA: this current is used for detecting Vbus*/
 138:Middlewares/ST/STM32_USB_Device_Library/Class/MIDI/Src/usbd_midi.c ****   
 139:Middlewares/ST/STM32_USB_Device_Library/Class/MIDI/Src/usbd_midi.c ****   /************** MIDI Adapter Standard MS Interface Descriptor ****************/
 140:Middlewares/ST/STM32_USB_Device_Library/Class/MIDI/Src/usbd_midi.c ****   0x09,                   /*bLength: Interface Descriptor size*/
 141:Middlewares/ST/STM32_USB_Device_Library/Class/MIDI/Src/usbd_midi.c ****   USB_DESC_TYPE_INTERFACE,/*bDescriptorType: Interface descriptor type*/
 142:Middlewares/ST/STM32_USB_Device_Library/Class/MIDI/Src/usbd_midi.c ****   0x00,                   /*bInterfaceNumber: Index of this interface.*/
 143:Middlewares/ST/STM32_USB_Device_Library/Class/MIDI/Src/usbd_midi.c ****   0x00,                   /*bAlternateSetting: Alternate setting*/
 144:Middlewares/ST/STM32_USB_Device_Library/Class/MIDI/Src/usbd_midi.c ****   0x02,                   /*bNumEndpoints*/
 145:Middlewares/ST/STM32_USB_Device_Library/Class/MIDI/Src/usbd_midi.c ****   0x01,                   /*bInterfaceClass: AUDIO*/
 146:Middlewares/ST/STM32_USB_Device_Library/Class/MIDI/Src/usbd_midi.c ****   0x03,                   /*bInterfaceSubClass : MIDISTREAMING*/
ARM GAS  C:\Users\Kuanysh\AppData\Local\Temp\ccHztPRo.s 			page 4


 147:Middlewares/ST/STM32_USB_Device_Library/Class/MIDI/Src/usbd_midi.c ****   0x00,                   /*nInterfaceProtocol : Unused*/
 148:Middlewares/ST/STM32_USB_Device_Library/Class/MIDI/Src/usbd_midi.c ****   0x00,                   /*iInterface: Unused*/
 149:Middlewares/ST/STM32_USB_Device_Library/Class/MIDI/Src/usbd_midi.c **** 
 150:Middlewares/ST/STM32_USB_Device_Library/Class/MIDI/Src/usbd_midi.c ****   /******************** MIDI Adapter Class-specific MS Interface Descriptor ********************/
 151:Middlewares/ST/STM32_USB_Device_Library/Class/MIDI/Src/usbd_midi.c ****   /* USB_MIDI_CLASS_DESC_SHIFT */
 152:Middlewares/ST/STM32_USB_Device_Library/Class/MIDI/Src/usbd_midi.c ****   0x07,                 /*bLength: Descriptor size*/
 153:Middlewares/ST/STM32_USB_Device_Library/Class/MIDI/Src/usbd_midi.c ****   0x24,                 /*bDescriptorType: CS_INTERFACE descriptor*/
 154:Middlewares/ST/STM32_USB_Device_Library/Class/MIDI/Src/usbd_midi.c ****   0x01,                 /*bDescriptorSubtype: MS_HEADER subtype*/
 155:Middlewares/ST/STM32_USB_Device_Library/Class/MIDI/Src/usbd_midi.c ****   0x00,
 156:Middlewares/ST/STM32_USB_Device_Library/Class/MIDI/Src/usbd_midi.c ****   0x01,                 /*BcdADC: Revision of this class specification*/
 157:Middlewares/ST/STM32_USB_Device_Library/Class/MIDI/Src/usbd_midi.c ****   USB_MIDI_REPORT_DESC_SIZE,
 158:Middlewares/ST/STM32_USB_Device_Library/Class/MIDI/Src/usbd_midi.c ****   0x00,                  /*wTotalLength: Total size of class-specific descriptors*/
 159:Middlewares/ST/STM32_USB_Device_Library/Class/MIDI/Src/usbd_midi.c **** 
 160:Middlewares/ST/STM32_USB_Device_Library/Class/MIDI/Src/usbd_midi.c **** #if MIDI_IN_PORTS_NUM >= 1
 161:Middlewares/ST/STM32_USB_Device_Library/Class/MIDI/Src/usbd_midi.c ****   /******************** MIDI Adapter MIDI IN Jack Descriptor (External) ********************/
 162:Middlewares/ST/STM32_USB_Device_Library/Class/MIDI/Src/usbd_midi.c ****   0x06,                   /*bLength: Size of this descriptor, in bytes*/
 163:Middlewares/ST/STM32_USB_Device_Library/Class/MIDI/Src/usbd_midi.c ****   0x24,                   /*bDescriptorType: CS_INTERFACE descriptor.*/
 164:Middlewares/ST/STM32_USB_Device_Library/Class/MIDI/Src/usbd_midi.c ****   0x02,                   /*bDescriptorSubtype: MIDI_IN_JACK subtype*/
 165:Middlewares/ST/STM32_USB_Device_Library/Class/MIDI/Src/usbd_midi.c ****   0x02,                   /*bJackType: EXTERNAL.*/
 166:Middlewares/ST/STM32_USB_Device_Library/Class/MIDI/Src/usbd_midi.c ****   MIDI_JACK_1,            /*bJackID: ID of this Jack.*/
 167:Middlewares/ST/STM32_USB_Device_Library/Class/MIDI/Src/usbd_midi.c ****   0x00,                   /*iJack: Unused.*/
 168:Middlewares/ST/STM32_USB_Device_Library/Class/MIDI/Src/usbd_midi.c **** 
 169:Middlewares/ST/STM32_USB_Device_Library/Class/MIDI/Src/usbd_midi.c ****   /******************** MIDI Adapter MIDI OUT Jack Descriptor (Embedded) ********************/
 170:Middlewares/ST/STM32_USB_Device_Library/Class/MIDI/Src/usbd_midi.c ****   0x09,                   /*bLength: Size of this descriptor, in bytes*/
 171:Middlewares/ST/STM32_USB_Device_Library/Class/MIDI/Src/usbd_midi.c ****   0x24,                   /*bDescriptorType: CS_INTERFACE descriptor.*/
 172:Middlewares/ST/STM32_USB_Device_Library/Class/MIDI/Src/usbd_midi.c ****   0x03,                   /*bDescriptorSubtype: MIDI_OUT_JACK subtype*/
 173:Middlewares/ST/STM32_USB_Device_Library/Class/MIDI/Src/usbd_midi.c ****   0x01,                   /*bJackType: EMBEDDED*/
 174:Middlewares/ST/STM32_USB_Device_Library/Class/MIDI/Src/usbd_midi.c ****   MIDI_JACK_2,            /*bJackID: ID of this Jack.*/
 175:Middlewares/ST/STM32_USB_Device_Library/Class/MIDI/Src/usbd_midi.c ****   0x01,                   /*bNrInputPins: Number of Input Pins of this Jack.*/
 176:Middlewares/ST/STM32_USB_Device_Library/Class/MIDI/Src/usbd_midi.c ****   MIDI_JACK_1,            /*BaSourceID(1): ID of the Entity to which this Pin is connected.*/
 177:Middlewares/ST/STM32_USB_Device_Library/Class/MIDI/Src/usbd_midi.c ****   0x01,                   /*BaSourcePin(1): Output Pin number of the Entity to which this Input Pin
 178:Middlewares/ST/STM32_USB_Device_Library/Class/MIDI/Src/usbd_midi.c ****   0x00,                   /*iJack: Unused.*/
 179:Middlewares/ST/STM32_USB_Device_Library/Class/MIDI/Src/usbd_midi.c **** #endif
 180:Middlewares/ST/STM32_USB_Device_Library/Class/MIDI/Src/usbd_midi.c **** 
 181:Middlewares/ST/STM32_USB_Device_Library/Class/MIDI/Src/usbd_midi.c **** #if MIDI_IN_PORTS_NUM >= 2
 182:Middlewares/ST/STM32_USB_Device_Library/Class/MIDI/Src/usbd_midi.c ****   /******************** MIDI Adapter MIDI IN Jack Descriptor (External) ********************/
 183:Middlewares/ST/STM32_USB_Device_Library/Class/MIDI/Src/usbd_midi.c ****   0x06,                   /*bLength: Size of this descriptor, in bytes*/
 184:Middlewares/ST/STM32_USB_Device_Library/Class/MIDI/Src/usbd_midi.c ****   0x24,                   /*bDescriptorType: CS_INTERFACE descriptor.*/
 185:Middlewares/ST/STM32_USB_Device_Library/Class/MIDI/Src/usbd_midi.c ****   0x02,                   /*bDescriptorSubtype: MIDI_IN_JACK subtype*/
 186:Middlewares/ST/STM32_USB_Device_Library/Class/MIDI/Src/usbd_midi.c ****   0x02,                   /*bJackType: EXTERNAL.*/
 187:Middlewares/ST/STM32_USB_Device_Library/Class/MIDI/Src/usbd_midi.c ****   MIDI_JACK_3,            /*bJackID: ID of this Jack.*/
 188:Middlewares/ST/STM32_USB_Device_Library/Class/MIDI/Src/usbd_midi.c ****   0x00,                   /*iJack: Unused.*/
 189:Middlewares/ST/STM32_USB_Device_Library/Class/MIDI/Src/usbd_midi.c **** 
 190:Middlewares/ST/STM32_USB_Device_Library/Class/MIDI/Src/usbd_midi.c ****   /******************** MIDI Adapter MIDI OUT Jack Descriptor (Embedded) ********************/
 191:Middlewares/ST/STM32_USB_Device_Library/Class/MIDI/Src/usbd_midi.c ****   0x09,                   /*bLength: Size of this descriptor, in bytes*/
 192:Middlewares/ST/STM32_USB_Device_Library/Class/MIDI/Src/usbd_midi.c ****   0x24,                   /*bDescriptorType: CS_INTERFACE descriptor.*/
 193:Middlewares/ST/STM32_USB_Device_Library/Class/MIDI/Src/usbd_midi.c ****   0x03,                   /*bDescriptorSubtype: MIDI_OUT_JACK subtype*/
 194:Middlewares/ST/STM32_USB_Device_Library/Class/MIDI/Src/usbd_midi.c ****   0x01,                   /*bJackType: EMBEDDED*/
 195:Middlewares/ST/STM32_USB_Device_Library/Class/MIDI/Src/usbd_midi.c ****   MIDI_JACK_4,            /*bJackID: ID of this Jack.*/
 196:Middlewares/ST/STM32_USB_Device_Library/Class/MIDI/Src/usbd_midi.c ****   0x01,                   /*bNrInputPins: Number of Input Pins of this Jack.*/
 197:Middlewares/ST/STM32_USB_Device_Library/Class/MIDI/Src/usbd_midi.c ****   MIDI_JACK_3,            /*BaSourceID(1): ID of the Entity to which this Pin is connected.*/
 198:Middlewares/ST/STM32_USB_Device_Library/Class/MIDI/Src/usbd_midi.c ****   0x01,                   /*BaSourcePin(1): Output Pin number of the Entity to which this Input Pin
 199:Middlewares/ST/STM32_USB_Device_Library/Class/MIDI/Src/usbd_midi.c ****   0x00,                   /*iJack: Unused.*/
 200:Middlewares/ST/STM32_USB_Device_Library/Class/MIDI/Src/usbd_midi.c **** #endif
 201:Middlewares/ST/STM32_USB_Device_Library/Class/MIDI/Src/usbd_midi.c **** 
 202:Middlewares/ST/STM32_USB_Device_Library/Class/MIDI/Src/usbd_midi.c **** #if MIDI_IN_PORTS_NUM >= 3
 203:Middlewares/ST/STM32_USB_Device_Library/Class/MIDI/Src/usbd_midi.c ****   /******************** MIDI Adapter MIDI IN Jack Descriptor (External) ********************/
ARM GAS  C:\Users\Kuanysh\AppData\Local\Temp\ccHztPRo.s 			page 5


 204:Middlewares/ST/STM32_USB_Device_Library/Class/MIDI/Src/usbd_midi.c ****   0x06,                   /*bLength: Size of this descriptor, in bytes*/
 205:Middlewares/ST/STM32_USB_Device_Library/Class/MIDI/Src/usbd_midi.c ****   0x24,                   /*bDescriptorType: CS_INTERFACE descriptor.*/
 206:Middlewares/ST/STM32_USB_Device_Library/Class/MIDI/Src/usbd_midi.c ****   0x02,                   /*bDescriptorSubtype: MIDI_IN_JACK subtype*/
 207:Middlewares/ST/STM32_USB_Device_Library/Class/MIDI/Src/usbd_midi.c ****   0x02,                   /*bJackType: EXTERNAL.*/
 208:Middlewares/ST/STM32_USB_Device_Library/Class/MIDI/Src/usbd_midi.c ****   MIDI_JACK_5,            /*bJackID: ID of this Jack.*/
 209:Middlewares/ST/STM32_USB_Device_Library/Class/MIDI/Src/usbd_midi.c ****   0x00,                   /*iJack: Unused.*/
 210:Middlewares/ST/STM32_USB_Device_Library/Class/MIDI/Src/usbd_midi.c **** 
 211:Middlewares/ST/STM32_USB_Device_Library/Class/MIDI/Src/usbd_midi.c ****   /******************** MIDI Adapter MIDI OUT Jack Descriptor (Embedded) ********************/
 212:Middlewares/ST/STM32_USB_Device_Library/Class/MIDI/Src/usbd_midi.c ****   0x09,                   /*bLength: Size of this descriptor, in bytes*/
 213:Middlewares/ST/STM32_USB_Device_Library/Class/MIDI/Src/usbd_midi.c ****   0x24,                   /*bDescriptorType: CS_INTERFACE descriptor.*/
 214:Middlewares/ST/STM32_USB_Device_Library/Class/MIDI/Src/usbd_midi.c ****   0x03,                   /*bDescriptorSubtype: MIDI_OUT_JACK subtype*/
 215:Middlewares/ST/STM32_USB_Device_Library/Class/MIDI/Src/usbd_midi.c ****   0x01,                   /*bJackType: EMBEDDED*/
 216:Middlewares/ST/STM32_USB_Device_Library/Class/MIDI/Src/usbd_midi.c ****   MIDI_JACK_6,            /*bJackID: ID of this Jack.*/
 217:Middlewares/ST/STM32_USB_Device_Library/Class/MIDI/Src/usbd_midi.c ****   0x01,                   /*bNrInputPins: Number of Input Pins of this Jack.*/
 218:Middlewares/ST/STM32_USB_Device_Library/Class/MIDI/Src/usbd_midi.c ****   MIDI_JACK_5,            /*BaSourceID(1): ID of the Entity to which this Pin is connected.*/
 219:Middlewares/ST/STM32_USB_Device_Library/Class/MIDI/Src/usbd_midi.c ****   0x01,                   /*BaSourcePin(1): Output Pin number of the Entity to which this Input Pin
 220:Middlewares/ST/STM32_USB_Device_Library/Class/MIDI/Src/usbd_midi.c ****   0x00,                   /*iJack: Unused.*/
 221:Middlewares/ST/STM32_USB_Device_Library/Class/MIDI/Src/usbd_midi.c **** #endif
 222:Middlewares/ST/STM32_USB_Device_Library/Class/MIDI/Src/usbd_midi.c **** 
 223:Middlewares/ST/STM32_USB_Device_Library/Class/MIDI/Src/usbd_midi.c **** #if MIDI_IN_PORTS_NUM >= 4
 224:Middlewares/ST/STM32_USB_Device_Library/Class/MIDI/Src/usbd_midi.c ****   /******************** MIDI Adapter MIDI IN Jack Descriptor (External) ********************/
 225:Middlewares/ST/STM32_USB_Device_Library/Class/MIDI/Src/usbd_midi.c ****   0x06,                   /*bLength: Size of this descriptor, in bytes*/
 226:Middlewares/ST/STM32_USB_Device_Library/Class/MIDI/Src/usbd_midi.c ****   0x24,                   /*bDescriptorType: CS_INTERFACE descriptor.*/
 227:Middlewares/ST/STM32_USB_Device_Library/Class/MIDI/Src/usbd_midi.c ****   0x02,                   /*bDescriptorSubtype: MIDI_IN_JACK subtype*/
 228:Middlewares/ST/STM32_USB_Device_Library/Class/MIDI/Src/usbd_midi.c ****   0x02,                   /*bJackType: EXTERNAL.*/
 229:Middlewares/ST/STM32_USB_Device_Library/Class/MIDI/Src/usbd_midi.c ****   MIDI_JACK_7,            /*bJackID: ID of this Jack.*/
 230:Middlewares/ST/STM32_USB_Device_Library/Class/MIDI/Src/usbd_midi.c ****   0x00,                   /*iJack: Unused.*/
 231:Middlewares/ST/STM32_USB_Device_Library/Class/MIDI/Src/usbd_midi.c **** 
 232:Middlewares/ST/STM32_USB_Device_Library/Class/MIDI/Src/usbd_midi.c ****   /******************** MIDI Adapter MIDI OUT Jack Descriptor (Embedded) ********************/
 233:Middlewares/ST/STM32_USB_Device_Library/Class/MIDI/Src/usbd_midi.c ****   0x09,                   /*bLength: Size of this descriptor, in bytes*/
 234:Middlewares/ST/STM32_USB_Device_Library/Class/MIDI/Src/usbd_midi.c ****   0x24,                   /*bDescriptorType: CS_INTERFACE descriptor.*/
 235:Middlewares/ST/STM32_USB_Device_Library/Class/MIDI/Src/usbd_midi.c ****   0x03,                   /*bDescriptorSubtype: MIDI_OUT_JACK subtype*/
 236:Middlewares/ST/STM32_USB_Device_Library/Class/MIDI/Src/usbd_midi.c ****   0x01,                   /*bJackType: EMBEDDED*/
 237:Middlewares/ST/STM32_USB_Device_Library/Class/MIDI/Src/usbd_midi.c ****   MIDI_JACK_8,            /*bJackID: ID of this Jack.*/
 238:Middlewares/ST/STM32_USB_Device_Library/Class/MIDI/Src/usbd_midi.c ****   0x01,                   /*bNrInputPins: Number of Input Pins of this Jack.*/
 239:Middlewares/ST/STM32_USB_Device_Library/Class/MIDI/Src/usbd_midi.c ****   MIDI_JACK_7,            /*BaSourceID(1): ID of the Entity to which this Pin is connected.*/
 240:Middlewares/ST/STM32_USB_Device_Library/Class/MIDI/Src/usbd_midi.c ****   0x01,                   /*BaSourcePin(1): Output Pin number of the Entity to which this Input Pin
 241:Middlewares/ST/STM32_USB_Device_Library/Class/MIDI/Src/usbd_midi.c ****   0x00,                   /*iJack: Unused.*/
 242:Middlewares/ST/STM32_USB_Device_Library/Class/MIDI/Src/usbd_midi.c **** #endif
 243:Middlewares/ST/STM32_USB_Device_Library/Class/MIDI/Src/usbd_midi.c **** 
 244:Middlewares/ST/STM32_USB_Device_Library/Class/MIDI/Src/usbd_midi.c **** #if MIDI_IN_PORTS_NUM >= 5 
 245:Middlewares/ST/STM32_USB_Device_Library/Class/MIDI/Src/usbd_midi.c ****   /******************** MIDI Adapter MIDI IN Jack Descriptor (External) ********************/
 246:Middlewares/ST/STM32_USB_Device_Library/Class/MIDI/Src/usbd_midi.c ****   0x06,                   /*bLength: Size of this descriptor, in bytes*/
 247:Middlewares/ST/STM32_USB_Device_Library/Class/MIDI/Src/usbd_midi.c ****   0x24,                   /*bDescriptorType: CS_INTERFACE descriptor.*/
 248:Middlewares/ST/STM32_USB_Device_Library/Class/MIDI/Src/usbd_midi.c ****   0x02,                   /*bDescriptorSubtype: MIDI_IN_JACK subtype*/
 249:Middlewares/ST/STM32_USB_Device_Library/Class/MIDI/Src/usbd_midi.c ****   0x02,                   /*bJackType: EXTERNAL.*/
 250:Middlewares/ST/STM32_USB_Device_Library/Class/MIDI/Src/usbd_midi.c ****   MIDI_JACK_9,            /*bJackID: ID of this Jack.*/
 251:Middlewares/ST/STM32_USB_Device_Library/Class/MIDI/Src/usbd_midi.c ****   0x00,                   /*iJack: Unused.*/
 252:Middlewares/ST/STM32_USB_Device_Library/Class/MIDI/Src/usbd_midi.c **** 
 253:Middlewares/ST/STM32_USB_Device_Library/Class/MIDI/Src/usbd_midi.c ****   /******************** MIDI Adapter MIDI OUT Jack Descriptor (Embedded) ********************/
 254:Middlewares/ST/STM32_USB_Device_Library/Class/MIDI/Src/usbd_midi.c ****   0x09,                   /*bLength: Size of this descriptor, in bytes*/
 255:Middlewares/ST/STM32_USB_Device_Library/Class/MIDI/Src/usbd_midi.c ****   0x24,                   /*bDescriptorType: CS_INTERFACE descriptor.*/
 256:Middlewares/ST/STM32_USB_Device_Library/Class/MIDI/Src/usbd_midi.c ****   0x03,                   /*bDescriptorSubtype: MIDI_OUT_JACK subtype*/
 257:Middlewares/ST/STM32_USB_Device_Library/Class/MIDI/Src/usbd_midi.c ****   0x01,                   /*bJackType: EMBEDDED*/
 258:Middlewares/ST/STM32_USB_Device_Library/Class/MIDI/Src/usbd_midi.c ****   MIDI_JACK_10,           /*bJackID: ID of this Jack.*/
 259:Middlewares/ST/STM32_USB_Device_Library/Class/MIDI/Src/usbd_midi.c ****   0x01,                   /*bNrInputPins: Number of Input Pins of this Jack.*/
 260:Middlewares/ST/STM32_USB_Device_Library/Class/MIDI/Src/usbd_midi.c ****   MIDI_JACK_9,            /*BaSourceID(1): ID of the Entity to which this Pin is connected.*/
ARM GAS  C:\Users\Kuanysh\AppData\Local\Temp\ccHztPRo.s 			page 6


 261:Middlewares/ST/STM32_USB_Device_Library/Class/MIDI/Src/usbd_midi.c ****   0x01,                   /*BaSourcePin(1): Output Pin number of the Entity to which this Input Pin
 262:Middlewares/ST/STM32_USB_Device_Library/Class/MIDI/Src/usbd_midi.c ****   0x00,                   /*iJack: Unused.*/
 263:Middlewares/ST/STM32_USB_Device_Library/Class/MIDI/Src/usbd_midi.c **** #endif
 264:Middlewares/ST/STM32_USB_Device_Library/Class/MIDI/Src/usbd_midi.c **** 
 265:Middlewares/ST/STM32_USB_Device_Library/Class/MIDI/Src/usbd_midi.c **** #if MIDI_IN_PORTS_NUM >= 6 
 266:Middlewares/ST/STM32_USB_Device_Library/Class/MIDI/Src/usbd_midi.c ****   /******************** MIDI Adapter MIDI IN Jack Descriptor (External) ********************/
 267:Middlewares/ST/STM32_USB_Device_Library/Class/MIDI/Src/usbd_midi.c ****   0x06,                   /*bLength: Size of this descriptor, in bytes*/
 268:Middlewares/ST/STM32_USB_Device_Library/Class/MIDI/Src/usbd_midi.c ****   0x24,                   /*bDescriptorType: CS_INTERFACE descriptor.*/
 269:Middlewares/ST/STM32_USB_Device_Library/Class/MIDI/Src/usbd_midi.c ****   0x02,                   /*bDescriptorSubtype: MIDI_IN_JACK subtype*/
 270:Middlewares/ST/STM32_USB_Device_Library/Class/MIDI/Src/usbd_midi.c ****   0x02,                   /*bJackType: EXTERNAL.*/
 271:Middlewares/ST/STM32_USB_Device_Library/Class/MIDI/Src/usbd_midi.c ****   MIDI_JACK_11,           /*bJackID: ID of this Jack.*/
 272:Middlewares/ST/STM32_USB_Device_Library/Class/MIDI/Src/usbd_midi.c ****   0x00,                   /*iJack: Unused.*/
 273:Middlewares/ST/STM32_USB_Device_Library/Class/MIDI/Src/usbd_midi.c **** 
 274:Middlewares/ST/STM32_USB_Device_Library/Class/MIDI/Src/usbd_midi.c ****   /******************** MIDI Adapter MIDI OUT Jack Descriptor (Embedded) ********************/
 275:Middlewares/ST/STM32_USB_Device_Library/Class/MIDI/Src/usbd_midi.c ****   0x09,                   /*bLength: Size of this descriptor, in bytes*/
 276:Middlewares/ST/STM32_USB_Device_Library/Class/MIDI/Src/usbd_midi.c ****   0x24,                   /*bDescriptorType: CS_INTERFACE descriptor.*/
 277:Middlewares/ST/STM32_USB_Device_Library/Class/MIDI/Src/usbd_midi.c ****   0x03,                   /*bDescriptorSubtype: MIDI_OUT_JACK subtype*/
 278:Middlewares/ST/STM32_USB_Device_Library/Class/MIDI/Src/usbd_midi.c ****   0x01,                   /*bJackType: EMBEDDED*/
 279:Middlewares/ST/STM32_USB_Device_Library/Class/MIDI/Src/usbd_midi.c ****   MIDI_JACK_12,           /*bJackID: ID of this Jack.*/
 280:Middlewares/ST/STM32_USB_Device_Library/Class/MIDI/Src/usbd_midi.c ****   0x01,                   /*bNrInputPins: Number of Input Pins of this Jack.*/
 281:Middlewares/ST/STM32_USB_Device_Library/Class/MIDI/Src/usbd_midi.c ****   MIDI_JACK_11,           /*BaSourceID(1): ID of the Entity to which this Pin is connected.*/
 282:Middlewares/ST/STM32_USB_Device_Library/Class/MIDI/Src/usbd_midi.c ****   0x01,                   /*BaSourcePin(1): Output Pin number of the Entity to which this Input Pin
 283:Middlewares/ST/STM32_USB_Device_Library/Class/MIDI/Src/usbd_midi.c ****   0x00,                   /*iJack: Unused.*/
 284:Middlewares/ST/STM32_USB_Device_Library/Class/MIDI/Src/usbd_midi.c **** #endif
 285:Middlewares/ST/STM32_USB_Device_Library/Class/MIDI/Src/usbd_midi.c **** 
 286:Middlewares/ST/STM32_USB_Device_Library/Class/MIDI/Src/usbd_midi.c **** #if MIDI_IN_PORTS_NUM >= 7 
 287:Middlewares/ST/STM32_USB_Device_Library/Class/MIDI/Src/usbd_midi.c ****   /******************** MIDI Adapter MIDI IN Jack Descriptor (External) ********************/
 288:Middlewares/ST/STM32_USB_Device_Library/Class/MIDI/Src/usbd_midi.c ****   0x06,                   /*bLength: Size of this descriptor, in bytes*/
 289:Middlewares/ST/STM32_USB_Device_Library/Class/MIDI/Src/usbd_midi.c ****   0x24,                   /*bDescriptorType: CS_INTERFACE descriptor.*/
 290:Middlewares/ST/STM32_USB_Device_Library/Class/MIDI/Src/usbd_midi.c ****   0x02,                   /*bDescriptorSubtype: MIDI_IN_JACK subtype*/
 291:Middlewares/ST/STM32_USB_Device_Library/Class/MIDI/Src/usbd_midi.c ****   0x02,                   /*bJackType: EXTERNAL.*/
 292:Middlewares/ST/STM32_USB_Device_Library/Class/MIDI/Src/usbd_midi.c ****   MIDI_JACK_13,           /*bJackID: ID of this Jack.*/
 293:Middlewares/ST/STM32_USB_Device_Library/Class/MIDI/Src/usbd_midi.c ****   0x00,                   /*iJack: Unused.*/
 294:Middlewares/ST/STM32_USB_Device_Library/Class/MIDI/Src/usbd_midi.c **** 
 295:Middlewares/ST/STM32_USB_Device_Library/Class/MIDI/Src/usbd_midi.c ****   /******************** MIDI Adapter MIDI OUT Jack Descriptor (Embedded) ********************/
 296:Middlewares/ST/STM32_USB_Device_Library/Class/MIDI/Src/usbd_midi.c ****   0x09,                   /*bLength: Size of this descriptor, in bytes*/
 297:Middlewares/ST/STM32_USB_Device_Library/Class/MIDI/Src/usbd_midi.c ****   0x24,                   /*bDescriptorType: CS_INTERFACE descriptor.*/
 298:Middlewares/ST/STM32_USB_Device_Library/Class/MIDI/Src/usbd_midi.c ****   0x03,                   /*bDescriptorSubtype: MIDI_OUT_JACK subtype*/
 299:Middlewares/ST/STM32_USB_Device_Library/Class/MIDI/Src/usbd_midi.c ****   0x01,                   /*bJackType: EMBEDDED*/
 300:Middlewares/ST/STM32_USB_Device_Library/Class/MIDI/Src/usbd_midi.c ****   MIDI_JACK_14,           /*bJackID: ID of this Jack.*/
 301:Middlewares/ST/STM32_USB_Device_Library/Class/MIDI/Src/usbd_midi.c ****   0x01,                   /*bNrInputPins: Number of Input Pins of this Jack.*/
 302:Middlewares/ST/STM32_USB_Device_Library/Class/MIDI/Src/usbd_midi.c ****   MIDI_JACK_13,           /*BaSourceID(1): ID of the Entity to which this Pin is connected.*/
 303:Middlewares/ST/STM32_USB_Device_Library/Class/MIDI/Src/usbd_midi.c ****   0x01,                   /*BaSourcePin(1): Output Pin number of the Entity to which this Input Pin
 304:Middlewares/ST/STM32_USB_Device_Library/Class/MIDI/Src/usbd_midi.c ****   0x00,                   /*iJack: Unused.*/
 305:Middlewares/ST/STM32_USB_Device_Library/Class/MIDI/Src/usbd_midi.c **** #endif
 306:Middlewares/ST/STM32_USB_Device_Library/Class/MIDI/Src/usbd_midi.c **** 
 307:Middlewares/ST/STM32_USB_Device_Library/Class/MIDI/Src/usbd_midi.c **** #if MIDI_IN_PORTS_NUM >= 8
 308:Middlewares/ST/STM32_USB_Device_Library/Class/MIDI/Src/usbd_midi.c ****   /******************** MIDI Adapter MIDI IN Jack Descriptor (External) ********************/
 309:Middlewares/ST/STM32_USB_Device_Library/Class/MIDI/Src/usbd_midi.c ****   0x06,                   /*bLength: Size of this descriptor, in bytes*/
 310:Middlewares/ST/STM32_USB_Device_Library/Class/MIDI/Src/usbd_midi.c ****   0x24,                   /*bDescriptorType: CS_INTERFACE descriptor.*/
 311:Middlewares/ST/STM32_USB_Device_Library/Class/MIDI/Src/usbd_midi.c ****   0x02,                   /*bDescriptorSubtype: MIDI_IN_JACK subtype*/
 312:Middlewares/ST/STM32_USB_Device_Library/Class/MIDI/Src/usbd_midi.c ****   0x02,                   /*bJackType: EXTERNAL.*/
 313:Middlewares/ST/STM32_USB_Device_Library/Class/MIDI/Src/usbd_midi.c ****   MIDI_JACK_15,           /*bJackID: ID of this Jack.*/
 314:Middlewares/ST/STM32_USB_Device_Library/Class/MIDI/Src/usbd_midi.c ****   0x00,                   /*iJack: Unused.*/
 315:Middlewares/ST/STM32_USB_Device_Library/Class/MIDI/Src/usbd_midi.c **** 
 316:Middlewares/ST/STM32_USB_Device_Library/Class/MIDI/Src/usbd_midi.c ****   /******************** MIDI Adapter MIDI OUT Jack Descriptor (Embedded) ********************/
 317:Middlewares/ST/STM32_USB_Device_Library/Class/MIDI/Src/usbd_midi.c ****   0x09,                   /*bLength: Size of this descriptor, in bytes*/
ARM GAS  C:\Users\Kuanysh\AppData\Local\Temp\ccHztPRo.s 			page 7


 318:Middlewares/ST/STM32_USB_Device_Library/Class/MIDI/Src/usbd_midi.c ****   0x24,                   /*bDescriptorType: CS_INTERFACE descriptor.*/
 319:Middlewares/ST/STM32_USB_Device_Library/Class/MIDI/Src/usbd_midi.c ****   0x03,                   /*bDescriptorSubtype: MIDI_OUT_JACK subtype*/
 320:Middlewares/ST/STM32_USB_Device_Library/Class/MIDI/Src/usbd_midi.c ****   0x01,                   /*bJackType: EMBEDDED*/
 321:Middlewares/ST/STM32_USB_Device_Library/Class/MIDI/Src/usbd_midi.c ****   MIDI_JACK_16,           /*bJackID: ID of this Jack.*/
 322:Middlewares/ST/STM32_USB_Device_Library/Class/MIDI/Src/usbd_midi.c ****   0x01,                   /*bNrInputPins: Number of Input Pins of this Jack.*/
 323:Middlewares/ST/STM32_USB_Device_Library/Class/MIDI/Src/usbd_midi.c ****   MIDI_JACK_15,           /*BaSourceID(1): ID of the Entity to which this Pin is connected.*/
 324:Middlewares/ST/STM32_USB_Device_Library/Class/MIDI/Src/usbd_midi.c ****   0x01,                   /*BaSourcePin(1): Output Pin number of the Entity to which this Input Pin
 325:Middlewares/ST/STM32_USB_Device_Library/Class/MIDI/Src/usbd_midi.c ****   0x00,                   /*iJack: Unused.*/
 326:Middlewares/ST/STM32_USB_Device_Library/Class/MIDI/Src/usbd_midi.c **** #endif
 327:Middlewares/ST/STM32_USB_Device_Library/Class/MIDI/Src/usbd_midi.c **** 
 328:Middlewares/ST/STM32_USB_Device_Library/Class/MIDI/Src/usbd_midi.c **** #if MIDI_OUT_PORTS_NUM >= 1
 329:Middlewares/ST/STM32_USB_Device_Library/Class/MIDI/Src/usbd_midi.c ****   /******************** MIDI Adapter MIDI IN Jack Descriptor (Embedded) ********************/
 330:Middlewares/ST/STM32_USB_Device_Library/Class/MIDI/Src/usbd_midi.c ****   0x06,                   /*bLength: Size of this descriptor, in bytes*/
 331:Middlewares/ST/STM32_USB_Device_Library/Class/MIDI/Src/usbd_midi.c ****   0x24,                   /*bDescriptorType: CS_INTERFACE descriptor.*/
 332:Middlewares/ST/STM32_USB_Device_Library/Class/MIDI/Src/usbd_midi.c ****   0x02,                   /*bDescriptorSubtype: MIDI_IN_JACK subtype*/
 333:Middlewares/ST/STM32_USB_Device_Library/Class/MIDI/Src/usbd_midi.c ****   0x01,                   /*bJackType: EMBEDDED*/
 334:Middlewares/ST/STM32_USB_Device_Library/Class/MIDI/Src/usbd_midi.c ****   MIDI_JACK_17,           /*bJackID: ID of this Jack.*/
 335:Middlewares/ST/STM32_USB_Device_Library/Class/MIDI/Src/usbd_midi.c ****   0x00,                   /*iJack: Unused.*/
 336:Middlewares/ST/STM32_USB_Device_Library/Class/MIDI/Src/usbd_midi.c **** 
 337:Middlewares/ST/STM32_USB_Device_Library/Class/MIDI/Src/usbd_midi.c ****   /******************** MIDI Adapter MIDI OUT Jack Descriptor (External) ********************/
 338:Middlewares/ST/STM32_USB_Device_Library/Class/MIDI/Src/usbd_midi.c ****   0x09,                   /*bLength: Size of this descriptor, in bytes*/
 339:Middlewares/ST/STM32_USB_Device_Library/Class/MIDI/Src/usbd_midi.c ****   0x24,                   /*bDescriptorType: CS_INTERFACE descriptor.*/
 340:Middlewares/ST/STM32_USB_Device_Library/Class/MIDI/Src/usbd_midi.c ****   0x03,                   /*bDescriptorSubtype: MIDI_OUT_JACK subtype*/
 341:Middlewares/ST/STM32_USB_Device_Library/Class/MIDI/Src/usbd_midi.c ****   0x02,                   /*bJackType: EXTERNAL.*/
 342:Middlewares/ST/STM32_USB_Device_Library/Class/MIDI/Src/usbd_midi.c ****   MIDI_JACK_18,           /*bJackID: ID of this Jack.*/
 343:Middlewares/ST/STM32_USB_Device_Library/Class/MIDI/Src/usbd_midi.c ****   0x01,                   /*bNrInputPins: Number of Input Pins of this Jack.*/
 344:Middlewares/ST/STM32_USB_Device_Library/Class/MIDI/Src/usbd_midi.c ****   MIDI_JACK_17,           /*BaSourceID(1): ID of the Entity to which this Pin is connected.*/
 345:Middlewares/ST/STM32_USB_Device_Library/Class/MIDI/Src/usbd_midi.c ****   0x01,                   /*BaSourcePin(1): Output Pin number of the Entity to which this Input Pin
 346:Middlewares/ST/STM32_USB_Device_Library/Class/MIDI/Src/usbd_midi.c ****   0x00,                   /*iJack: Unused.*/
 347:Middlewares/ST/STM32_USB_Device_Library/Class/MIDI/Src/usbd_midi.c **** #endif
 348:Middlewares/ST/STM32_USB_Device_Library/Class/MIDI/Src/usbd_midi.c **** 
 349:Middlewares/ST/STM32_USB_Device_Library/Class/MIDI/Src/usbd_midi.c **** #if MIDI_OUT_PORTS_NUM >= 2
 350:Middlewares/ST/STM32_USB_Device_Library/Class/MIDI/Src/usbd_midi.c ****   /******************** MIDI Adapter MIDI IN Jack Descriptor (Embedded) ********************/
 351:Middlewares/ST/STM32_USB_Device_Library/Class/MIDI/Src/usbd_midi.c ****   0x06,                   /*bLength: Size of this descriptor, in bytes*/
 352:Middlewares/ST/STM32_USB_Device_Library/Class/MIDI/Src/usbd_midi.c ****   0x24,                   /*bDescriptorType: CS_INTERFACE descriptor.*/
 353:Middlewares/ST/STM32_USB_Device_Library/Class/MIDI/Src/usbd_midi.c ****   0x02,                   /*bDescriptorSubtype: MIDI_IN_JACK subtype*/
 354:Middlewares/ST/STM32_USB_Device_Library/Class/MIDI/Src/usbd_midi.c ****   0x01,                   /*bJackType: EMBEDDED*/
 355:Middlewares/ST/STM32_USB_Device_Library/Class/MIDI/Src/usbd_midi.c ****   MIDI_JACK_19,           /*bJackID: ID of this Jack.*/
 356:Middlewares/ST/STM32_USB_Device_Library/Class/MIDI/Src/usbd_midi.c ****   0x00,                   /*iJack: Unused.*/
 357:Middlewares/ST/STM32_USB_Device_Library/Class/MIDI/Src/usbd_midi.c **** 
 358:Middlewares/ST/STM32_USB_Device_Library/Class/MIDI/Src/usbd_midi.c ****   /******************** MIDI Adapter MIDI OUT Jack Descriptor (External) ********************/
 359:Middlewares/ST/STM32_USB_Device_Library/Class/MIDI/Src/usbd_midi.c ****   0x09,                   /*bLength: Size of this descriptor, in bytes*/
 360:Middlewares/ST/STM32_USB_Device_Library/Class/MIDI/Src/usbd_midi.c ****   0x24,                   /*bDescriptorType: CS_INTERFACE descriptor.*/
 361:Middlewares/ST/STM32_USB_Device_Library/Class/MIDI/Src/usbd_midi.c ****   0x03,                   /*bDescriptorSubtype: MIDI_OUT_JACK subtype*/
 362:Middlewares/ST/STM32_USB_Device_Library/Class/MIDI/Src/usbd_midi.c ****   0x02,                   /*bJackType: EXTERNAL.*/
 363:Middlewares/ST/STM32_USB_Device_Library/Class/MIDI/Src/usbd_midi.c ****   MIDI_JACK_20,           /*bJackID: ID of this Jack.*/
 364:Middlewares/ST/STM32_USB_Device_Library/Class/MIDI/Src/usbd_midi.c ****   0x01,                   /*bNrInputPins: Number of Input Pins of this Jack.*/
 365:Middlewares/ST/STM32_USB_Device_Library/Class/MIDI/Src/usbd_midi.c ****   MIDI_JACK_19,           /*BaSourceID(1): ID of the Entity to which this Pin is connected.*/
 366:Middlewares/ST/STM32_USB_Device_Library/Class/MIDI/Src/usbd_midi.c ****   0x01,                   /*BaSourcePin(1): Output Pin number of the Entity to which this Input Pin
 367:Middlewares/ST/STM32_USB_Device_Library/Class/MIDI/Src/usbd_midi.c ****   0x00,                   /*iJack: Unused.*/
 368:Middlewares/ST/STM32_USB_Device_Library/Class/MIDI/Src/usbd_midi.c **** #endif
 369:Middlewares/ST/STM32_USB_Device_Library/Class/MIDI/Src/usbd_midi.c **** 
 370:Middlewares/ST/STM32_USB_Device_Library/Class/MIDI/Src/usbd_midi.c **** #if MIDI_OUT_PORTS_NUM >= 3
 371:Middlewares/ST/STM32_USB_Device_Library/Class/MIDI/Src/usbd_midi.c ****   /******************** MIDI Adapter MIDI IN Jack Descriptor (Embedded) ********************/
 372:Middlewares/ST/STM32_USB_Device_Library/Class/MIDI/Src/usbd_midi.c ****   0x06,                   /*bLength: Size of this descriptor, in bytes*/
 373:Middlewares/ST/STM32_USB_Device_Library/Class/MIDI/Src/usbd_midi.c ****   0x24,                   /*bDescriptorType: CS_INTERFACE descriptor.*/
 374:Middlewares/ST/STM32_USB_Device_Library/Class/MIDI/Src/usbd_midi.c ****   0x02,                   /*bDescriptorSubtype: MIDI_IN_JACK subtype*/
ARM GAS  C:\Users\Kuanysh\AppData\Local\Temp\ccHztPRo.s 			page 8


 375:Middlewares/ST/STM32_USB_Device_Library/Class/MIDI/Src/usbd_midi.c ****   0x01,                   /*bJackType: EMBEDDED*/
 376:Middlewares/ST/STM32_USB_Device_Library/Class/MIDI/Src/usbd_midi.c ****   MIDI_JACK_21,           /*bJackID: ID of this Jack.*/
 377:Middlewares/ST/STM32_USB_Device_Library/Class/MIDI/Src/usbd_midi.c ****   0x00,                   /*iJack: Unused.*/
 378:Middlewares/ST/STM32_USB_Device_Library/Class/MIDI/Src/usbd_midi.c **** 
 379:Middlewares/ST/STM32_USB_Device_Library/Class/MIDI/Src/usbd_midi.c ****   /******************** MIDI Adapter MIDI OUT Jack Descriptor (External) ********************/
 380:Middlewares/ST/STM32_USB_Device_Library/Class/MIDI/Src/usbd_midi.c ****   0x09,                   /*bLength: Size of this descriptor, in bytes*/
 381:Middlewares/ST/STM32_USB_Device_Library/Class/MIDI/Src/usbd_midi.c ****   0x24,                   /*bDescriptorType: CS_INTERFACE descriptor.*/
 382:Middlewares/ST/STM32_USB_Device_Library/Class/MIDI/Src/usbd_midi.c ****   0x03,                   /*bDescriptorSubtype: MIDI_OUT_JACK subtype*/
 383:Middlewares/ST/STM32_USB_Device_Library/Class/MIDI/Src/usbd_midi.c ****   0x02,                   /*bJackType: EXTERNAL.*/
 384:Middlewares/ST/STM32_USB_Device_Library/Class/MIDI/Src/usbd_midi.c ****   MIDI_JACK_22,           /*bJackID: ID of this Jack.*/
 385:Middlewares/ST/STM32_USB_Device_Library/Class/MIDI/Src/usbd_midi.c ****   0x01,                   /*bNrInputPins: Number of Input Pins of this Jack.*/
 386:Middlewares/ST/STM32_USB_Device_Library/Class/MIDI/Src/usbd_midi.c ****   MIDI_JACK_21,           /*BaSourceID(1): ID of the Entity to which this Pin is connected.*/
 387:Middlewares/ST/STM32_USB_Device_Library/Class/MIDI/Src/usbd_midi.c ****   0x01,                   /*BaSourcePin(1): Output Pin number of the Entity to which this Input Pin
 388:Middlewares/ST/STM32_USB_Device_Library/Class/MIDI/Src/usbd_midi.c ****   0x00,                   /*iJack: Unused.*/
 389:Middlewares/ST/STM32_USB_Device_Library/Class/MIDI/Src/usbd_midi.c **** #endif
 390:Middlewares/ST/STM32_USB_Device_Library/Class/MIDI/Src/usbd_midi.c **** 
 391:Middlewares/ST/STM32_USB_Device_Library/Class/MIDI/Src/usbd_midi.c **** #if MIDI_OUT_PORTS_NUM >= 4
 392:Middlewares/ST/STM32_USB_Device_Library/Class/MIDI/Src/usbd_midi.c ****   /******************** MIDI Adapter MIDI IN Jack Descriptor (Embedded) ********************/
 393:Middlewares/ST/STM32_USB_Device_Library/Class/MIDI/Src/usbd_midi.c ****   0x06,                   /*bLength: Size of this descriptor, in bytes*/
 394:Middlewares/ST/STM32_USB_Device_Library/Class/MIDI/Src/usbd_midi.c ****   0x24,                   /*bDescriptorType: CS_INTERFACE descriptor.*/
 395:Middlewares/ST/STM32_USB_Device_Library/Class/MIDI/Src/usbd_midi.c ****   0x02,                   /*bDescriptorSubtype: MIDI_IN_JACK subtype*/
 396:Middlewares/ST/STM32_USB_Device_Library/Class/MIDI/Src/usbd_midi.c ****   0x01,                   /*bJackType: EMBEDDED*/
 397:Middlewares/ST/STM32_USB_Device_Library/Class/MIDI/Src/usbd_midi.c ****   MIDI_JACK_23,           /*bJackID: ID of this Jack.*/
 398:Middlewares/ST/STM32_USB_Device_Library/Class/MIDI/Src/usbd_midi.c ****   0x00,                   /*iJack: Unused.*/
 399:Middlewares/ST/STM32_USB_Device_Library/Class/MIDI/Src/usbd_midi.c **** 
 400:Middlewares/ST/STM32_USB_Device_Library/Class/MIDI/Src/usbd_midi.c ****   /******************** MIDI Adapter MIDI OUT Jack Descriptor (External) ********************/
 401:Middlewares/ST/STM32_USB_Device_Library/Class/MIDI/Src/usbd_midi.c ****   0x09,                   /*bLength: Size of this descriptor, in bytes*/
 402:Middlewares/ST/STM32_USB_Device_Library/Class/MIDI/Src/usbd_midi.c ****   0x24,                   /*bDescriptorType: CS_INTERFACE descriptor.*/
 403:Middlewares/ST/STM32_USB_Device_Library/Class/MIDI/Src/usbd_midi.c ****   0x03,                   /*bDescriptorSubtype: MIDI_OUT_JACK subtype*/
 404:Middlewares/ST/STM32_USB_Device_Library/Class/MIDI/Src/usbd_midi.c ****   0x02,                   /*bJackType: EXTERNAL.*/
 405:Middlewares/ST/STM32_USB_Device_Library/Class/MIDI/Src/usbd_midi.c ****   MIDI_JACK_24,           /*bJackID: ID of this Jack.*/
 406:Middlewares/ST/STM32_USB_Device_Library/Class/MIDI/Src/usbd_midi.c ****   0x01,                   /*bNrInputPins: Number of Input Pins of this Jack.*/
 407:Middlewares/ST/STM32_USB_Device_Library/Class/MIDI/Src/usbd_midi.c ****   MIDI_JACK_23,           /*BaSourceID(1): ID of the Entity to which this Pin is connected.*/
 408:Middlewares/ST/STM32_USB_Device_Library/Class/MIDI/Src/usbd_midi.c ****   0x01,                   /*BaSourcePin(1): Output Pin number of the Entity to which this Input Pin
 409:Middlewares/ST/STM32_USB_Device_Library/Class/MIDI/Src/usbd_midi.c ****   0x00,                   /*iJack: Unused.*/
 410:Middlewares/ST/STM32_USB_Device_Library/Class/MIDI/Src/usbd_midi.c **** #endif
 411:Middlewares/ST/STM32_USB_Device_Library/Class/MIDI/Src/usbd_midi.c **** 
 412:Middlewares/ST/STM32_USB_Device_Library/Class/MIDI/Src/usbd_midi.c **** #if MIDI_OUT_PORTS_NUM >= 5
 413:Middlewares/ST/STM32_USB_Device_Library/Class/MIDI/Src/usbd_midi.c ****   /******************** MIDI Adapter MIDI IN Jack Descriptor (Embedded) ********************/
 414:Middlewares/ST/STM32_USB_Device_Library/Class/MIDI/Src/usbd_midi.c ****   0x06,                   /*bLength: Size of this descriptor, in bytes*/
 415:Middlewares/ST/STM32_USB_Device_Library/Class/MIDI/Src/usbd_midi.c ****   0x24,                   /*bDescriptorType: CS_INTERFACE descriptor.*/
 416:Middlewares/ST/STM32_USB_Device_Library/Class/MIDI/Src/usbd_midi.c ****   0x02,                   /*bDescriptorSubtype: MIDI_IN_JACK subtype*/
 417:Middlewares/ST/STM32_USB_Device_Library/Class/MIDI/Src/usbd_midi.c ****   0x01,                   /*bJackType: EMBEDDED*/
 418:Middlewares/ST/STM32_USB_Device_Library/Class/MIDI/Src/usbd_midi.c ****   MIDI_JACK_25,           /*bJackID: ID of this Jack.*/
 419:Middlewares/ST/STM32_USB_Device_Library/Class/MIDI/Src/usbd_midi.c ****   0x00,                   /*iJack: Unused.*/
 420:Middlewares/ST/STM32_USB_Device_Library/Class/MIDI/Src/usbd_midi.c **** 
 421:Middlewares/ST/STM32_USB_Device_Library/Class/MIDI/Src/usbd_midi.c ****   /******************** MIDI Adapter MIDI OUT Jack Descriptor (External) ********************/
 422:Middlewares/ST/STM32_USB_Device_Library/Class/MIDI/Src/usbd_midi.c ****   0x09,                   /*bLength: Size of this descriptor, in bytes*/
 423:Middlewares/ST/STM32_USB_Device_Library/Class/MIDI/Src/usbd_midi.c ****   0x24,                   /*bDescriptorType: CS_INTERFACE descriptor.*/
 424:Middlewares/ST/STM32_USB_Device_Library/Class/MIDI/Src/usbd_midi.c ****   0x03,                   /*bDescriptorSubtype: MIDI_OUT_JACK subtype*/
 425:Middlewares/ST/STM32_USB_Device_Library/Class/MIDI/Src/usbd_midi.c ****   0x02,                   /*bJackType: EXTERNAL.*/
 426:Middlewares/ST/STM32_USB_Device_Library/Class/MIDI/Src/usbd_midi.c ****   MIDI_JACK_26,           /*bJackID: ID of this Jack.*/
 427:Middlewares/ST/STM32_USB_Device_Library/Class/MIDI/Src/usbd_midi.c ****   0x01,                   /*bNrInputPins: Number of Input Pins of this Jack.*/
 428:Middlewares/ST/STM32_USB_Device_Library/Class/MIDI/Src/usbd_midi.c ****   MIDI_JACK_25,           /*BaSourceID(1): ID of the Entity to which this Pin is connected.*/
 429:Middlewares/ST/STM32_USB_Device_Library/Class/MIDI/Src/usbd_midi.c ****   0x01,                   /*BaSourcePin(1): Output Pin number of the Entity to which this Input Pin
 430:Middlewares/ST/STM32_USB_Device_Library/Class/MIDI/Src/usbd_midi.c ****   0x00,                   /*iJack: Unused.*/
 431:Middlewares/ST/STM32_USB_Device_Library/Class/MIDI/Src/usbd_midi.c **** #endif
ARM GAS  C:\Users\Kuanysh\AppData\Local\Temp\ccHztPRo.s 			page 9


 432:Middlewares/ST/STM32_USB_Device_Library/Class/MIDI/Src/usbd_midi.c **** 
 433:Middlewares/ST/STM32_USB_Device_Library/Class/MIDI/Src/usbd_midi.c **** #if MIDI_OUT_PORTS_NUM >= 6
 434:Middlewares/ST/STM32_USB_Device_Library/Class/MIDI/Src/usbd_midi.c ****   /******************** MIDI Adapter MIDI IN Jack Descriptor (Embedded) ********************/
 435:Middlewares/ST/STM32_USB_Device_Library/Class/MIDI/Src/usbd_midi.c ****   0x06,                   /*bLength: Size of this descriptor, in bytes*/
 436:Middlewares/ST/STM32_USB_Device_Library/Class/MIDI/Src/usbd_midi.c ****   0x24,                   /*bDescriptorType: CS_INTERFACE descriptor.*/
 437:Middlewares/ST/STM32_USB_Device_Library/Class/MIDI/Src/usbd_midi.c ****   0x02,                   /*bDescriptorSubtype: MIDI_IN_JACK subtype*/
 438:Middlewares/ST/STM32_USB_Device_Library/Class/MIDI/Src/usbd_midi.c ****   0x01,                   /*bJackType: EMBEDDED*/
 439:Middlewares/ST/STM32_USB_Device_Library/Class/MIDI/Src/usbd_midi.c ****   MIDI_JACK_27,           /*bJackID: ID of this Jack.*/
 440:Middlewares/ST/STM32_USB_Device_Library/Class/MIDI/Src/usbd_midi.c ****   0x00,                   /*iJack: Unused.*/
 441:Middlewares/ST/STM32_USB_Device_Library/Class/MIDI/Src/usbd_midi.c **** 
 442:Middlewares/ST/STM32_USB_Device_Library/Class/MIDI/Src/usbd_midi.c ****   /******************** MIDI Adapter MIDI OUT Jack Descriptor (External) ********************/
 443:Middlewares/ST/STM32_USB_Device_Library/Class/MIDI/Src/usbd_midi.c ****   0x09,                   /*bLength: Size of this descriptor, in bytes*/
 444:Middlewares/ST/STM32_USB_Device_Library/Class/MIDI/Src/usbd_midi.c ****   0x24,                   /*bDescriptorType: CS_INTERFACE descriptor.*/
 445:Middlewares/ST/STM32_USB_Device_Library/Class/MIDI/Src/usbd_midi.c ****   0x03,                   /*bDescriptorSubtype: MIDI_OUT_JACK subtype*/
 446:Middlewares/ST/STM32_USB_Device_Library/Class/MIDI/Src/usbd_midi.c ****   0x02,                   /*bJackType: EXTERNAL.*/
 447:Middlewares/ST/STM32_USB_Device_Library/Class/MIDI/Src/usbd_midi.c ****   MIDI_JACK_28,           /*bJackID: ID of this Jack.*/
 448:Middlewares/ST/STM32_USB_Device_Library/Class/MIDI/Src/usbd_midi.c ****   0x01,                   /*bNrInputPins: Number of Input Pins of this Jack.*/
 449:Middlewares/ST/STM32_USB_Device_Library/Class/MIDI/Src/usbd_midi.c ****   MIDI_JACK_27,           /*BaSourceID(1): ID of the Entity to which this Pin is connected.*/
 450:Middlewares/ST/STM32_USB_Device_Library/Class/MIDI/Src/usbd_midi.c ****   0x01,                   /*BaSourcePin(1): Output Pin number of the Entity to which this Input Pin
 451:Middlewares/ST/STM32_USB_Device_Library/Class/MIDI/Src/usbd_midi.c ****   0x00,                   /*iJack: Unused.*/
 452:Middlewares/ST/STM32_USB_Device_Library/Class/MIDI/Src/usbd_midi.c **** #endif
 453:Middlewares/ST/STM32_USB_Device_Library/Class/MIDI/Src/usbd_midi.c **** 
 454:Middlewares/ST/STM32_USB_Device_Library/Class/MIDI/Src/usbd_midi.c **** #if MIDI_OUT_PORTS_NUM >= 7
 455:Middlewares/ST/STM32_USB_Device_Library/Class/MIDI/Src/usbd_midi.c ****   /******************** MIDI Adapter MIDI IN Jack Descriptor (Embedded) ********************/
 456:Middlewares/ST/STM32_USB_Device_Library/Class/MIDI/Src/usbd_midi.c ****   0x06,                   /*bLength: Size of this descriptor, in bytes*/
 457:Middlewares/ST/STM32_USB_Device_Library/Class/MIDI/Src/usbd_midi.c ****   0x24,                   /*bDescriptorType: CS_INTERFACE descriptor.*/
 458:Middlewares/ST/STM32_USB_Device_Library/Class/MIDI/Src/usbd_midi.c ****   0x02,                   /*bDescriptorSubtype: MIDI_IN_JACK subtype*/
 459:Middlewares/ST/STM32_USB_Device_Library/Class/MIDI/Src/usbd_midi.c ****   0x01,                   /*bJackType: EMBEDDED*/
 460:Middlewares/ST/STM32_USB_Device_Library/Class/MIDI/Src/usbd_midi.c ****   MIDI_JACK_29,           /*bJackID: ID of this Jack.*/
 461:Middlewares/ST/STM32_USB_Device_Library/Class/MIDI/Src/usbd_midi.c ****   0x00,                   /*iJack: Unused.*/
 462:Middlewares/ST/STM32_USB_Device_Library/Class/MIDI/Src/usbd_midi.c **** 
 463:Middlewares/ST/STM32_USB_Device_Library/Class/MIDI/Src/usbd_midi.c ****   /******************** MIDI Adapter MIDI OUT Jack Descriptor (External) ********************/
 464:Middlewares/ST/STM32_USB_Device_Library/Class/MIDI/Src/usbd_midi.c ****   0x09,                   /*bLength: Size of this descriptor, in bytes*/
 465:Middlewares/ST/STM32_USB_Device_Library/Class/MIDI/Src/usbd_midi.c ****   0x24,                   /*bDescriptorType: CS_INTERFACE descriptor.*/
 466:Middlewares/ST/STM32_USB_Device_Library/Class/MIDI/Src/usbd_midi.c ****   0x03,                   /*bDescriptorSubtype: MIDI_OUT_JACK subtype*/
 467:Middlewares/ST/STM32_USB_Device_Library/Class/MIDI/Src/usbd_midi.c ****   0x02,                   /*bJackType: EXTERNAL.*/
 468:Middlewares/ST/STM32_USB_Device_Library/Class/MIDI/Src/usbd_midi.c ****   MIDI_JACK_30,           /*bJackID: ID of this Jack.*/
 469:Middlewares/ST/STM32_USB_Device_Library/Class/MIDI/Src/usbd_midi.c ****   0x01,                   /*bNrInputPins: Number of Input Pins of this Jack.*/
 470:Middlewares/ST/STM32_USB_Device_Library/Class/MIDI/Src/usbd_midi.c ****   MIDI_JACK_29,           /*BaSourceID(1): ID of the Entity to which this Pin is connected.*/
 471:Middlewares/ST/STM32_USB_Device_Library/Class/MIDI/Src/usbd_midi.c ****   0x01,                   /*BaSourcePin(1): Output Pin number of the Entity to which this Input Pin
 472:Middlewares/ST/STM32_USB_Device_Library/Class/MIDI/Src/usbd_midi.c ****   0x00,                   /*iJack: Unused.*/
 473:Middlewares/ST/STM32_USB_Device_Library/Class/MIDI/Src/usbd_midi.c **** #endif
 474:Middlewares/ST/STM32_USB_Device_Library/Class/MIDI/Src/usbd_midi.c **** 
 475:Middlewares/ST/STM32_USB_Device_Library/Class/MIDI/Src/usbd_midi.c **** #if MIDI_OUT_PORTS_NUM >= 8
 476:Middlewares/ST/STM32_USB_Device_Library/Class/MIDI/Src/usbd_midi.c ****   /******************** MIDI Adapter MIDI IN Jack Descriptor (Embedded) ********************/
 477:Middlewares/ST/STM32_USB_Device_Library/Class/MIDI/Src/usbd_midi.c ****   0x06,                   /*bLength: Size of this descriptor, in bytes*/
 478:Middlewares/ST/STM32_USB_Device_Library/Class/MIDI/Src/usbd_midi.c ****   0x24,                   /*bDescriptorType: CS_INTERFACE descriptor.*/
 479:Middlewares/ST/STM32_USB_Device_Library/Class/MIDI/Src/usbd_midi.c ****   0x02,                   /*bDescriptorSubtype: MIDI_IN_JACK subtype*/
 480:Middlewares/ST/STM32_USB_Device_Library/Class/MIDI/Src/usbd_midi.c ****   0x01,                   /*bJackType: EMBEDDED*/
 481:Middlewares/ST/STM32_USB_Device_Library/Class/MIDI/Src/usbd_midi.c ****   MIDI_JACK_31,           /*bJackID: ID of this Jack.*/
 482:Middlewares/ST/STM32_USB_Device_Library/Class/MIDI/Src/usbd_midi.c ****   0x00,                   /*iJack: Unused.*/
 483:Middlewares/ST/STM32_USB_Device_Library/Class/MIDI/Src/usbd_midi.c **** 
 484:Middlewares/ST/STM32_USB_Device_Library/Class/MIDI/Src/usbd_midi.c ****   /******************** MIDI Adapter MIDI OUT Jack Descriptor (External) ********************/
 485:Middlewares/ST/STM32_USB_Device_Library/Class/MIDI/Src/usbd_midi.c ****   0x09,                   /*bLength: Size of this descriptor, in bytes*/
 486:Middlewares/ST/STM32_USB_Device_Library/Class/MIDI/Src/usbd_midi.c ****   0x24,                   /*bDescriptorType: CS_INTERFACE descriptor.*/
 487:Middlewares/ST/STM32_USB_Device_Library/Class/MIDI/Src/usbd_midi.c ****   0x03,                   /*bDescriptorSubtype: MIDI_OUT_JACK subtype*/
 488:Middlewares/ST/STM32_USB_Device_Library/Class/MIDI/Src/usbd_midi.c ****   0x02,                   /*bJackType: EXTERNAL.*/
ARM GAS  C:\Users\Kuanysh\AppData\Local\Temp\ccHztPRo.s 			page 10


 489:Middlewares/ST/STM32_USB_Device_Library/Class/MIDI/Src/usbd_midi.c ****   MIDI_JACK_32,           /*bJackID: ID of this Jack.*/
 490:Middlewares/ST/STM32_USB_Device_Library/Class/MIDI/Src/usbd_midi.c ****   0x01,                   /*bNrInputPins: Number of Input Pins of this Jack.*/
 491:Middlewares/ST/STM32_USB_Device_Library/Class/MIDI/Src/usbd_midi.c ****   MIDI_JACK_31,           /*BaSourceID(1): ID of the Entity to which this Pin is connected.*/
 492:Middlewares/ST/STM32_USB_Device_Library/Class/MIDI/Src/usbd_midi.c ****   0x01,                   /*BaSourcePin(1): Output Pin number of the Entity to which this Input Pin
 493:Middlewares/ST/STM32_USB_Device_Library/Class/MIDI/Src/usbd_midi.c ****   0x00,                   /*iJack: Unused.*/
 494:Middlewares/ST/STM32_USB_Device_Library/Class/MIDI/Src/usbd_midi.c **** #endif
 495:Middlewares/ST/STM32_USB_Device_Library/Class/MIDI/Src/usbd_midi.c **** 
 496:Middlewares/ST/STM32_USB_Device_Library/Class/MIDI/Src/usbd_midi.c ****   /******************** MIDI Adapter Standard Bulk OUT Endpoint Descriptor ********************/
 497:Middlewares/ST/STM32_USB_Device_Library/Class/MIDI/Src/usbd_midi.c ****   0x09,                   /*bLength: Size of this descriptor, in bytes*/
 498:Middlewares/ST/STM32_USB_Device_Library/Class/MIDI/Src/usbd_midi.c ****   USB_DESC_TYPE_ENDPOINT, /*bDescriptorType: ENDPOINT descriptor.*/
 499:Middlewares/ST/STM32_USB_Device_Library/Class/MIDI/Src/usbd_midi.c ****   MIDI_EPOUT_ADDR,        /*bEndpointAddress: OUT Endpoint 1.*/
 500:Middlewares/ST/STM32_USB_Device_Library/Class/MIDI/Src/usbd_midi.c ****   0x02,                   /*bmAttributes: Bulk, not shared.*/
 501:Middlewares/ST/STM32_USB_Device_Library/Class/MIDI/Src/usbd_midi.c ****   MIDI_EPOUT_SIZE, 
 502:Middlewares/ST/STM32_USB_Device_Library/Class/MIDI/Src/usbd_midi.c ****   0x00,                   /*wMaxPacketSize*/
 503:Middlewares/ST/STM32_USB_Device_Library/Class/MIDI/Src/usbd_midi.c ****   0x00,                   /*bInterval: Ignored for Bulk. Set to zero.*/
 504:Middlewares/ST/STM32_USB_Device_Library/Class/MIDI/Src/usbd_midi.c ****   0x00,                   /*bRefresh: Unused.*/
 505:Middlewares/ST/STM32_USB_Device_Library/Class/MIDI/Src/usbd_midi.c ****   0x00,                   /*bSynchAddress: Unused.*/
 506:Middlewares/ST/STM32_USB_Device_Library/Class/MIDI/Src/usbd_midi.c **** 
 507:Middlewares/ST/STM32_USB_Device_Library/Class/MIDI/Src/usbd_midi.c ****   /******************** MIDI Adapter Class-specific Bulk OUT Endpoint Descriptor ******************
 508:Middlewares/ST/STM32_USB_Device_Library/Class/MIDI/Src/usbd_midi.c ****   (4 + MIDI_OUT_PORTS_NUM), /*bLength: Size of this descriptor, in bytes*/
 509:Middlewares/ST/STM32_USB_Device_Library/Class/MIDI/Src/usbd_midi.c ****   0x25,                     /*bDescriptorType: CS_ENDPOINT descriptor*/
 510:Middlewares/ST/STM32_USB_Device_Library/Class/MIDI/Src/usbd_midi.c ****   0x01,                     /*bDescriptorSubtype: MS_GENERAL subtype.*/
 511:Middlewares/ST/STM32_USB_Device_Library/Class/MIDI/Src/usbd_midi.c ****   MIDI_OUT_PORTS_NUM,       /*bNumEmbMIDIJack: Number of embedded MIDI IN Jacks.*/
 512:Middlewares/ST/STM32_USB_Device_Library/Class/MIDI/Src/usbd_midi.c **** #if MIDI_OUT_PORTS_NUM >= 1
 513:Middlewares/ST/STM32_USB_Device_Library/Class/MIDI/Src/usbd_midi.c ****   MIDI_JACK_17,             /*BaAssocJackID(1): ID of the Embedded MIDI IN Jack.*/
 514:Middlewares/ST/STM32_USB_Device_Library/Class/MIDI/Src/usbd_midi.c **** #endif
 515:Middlewares/ST/STM32_USB_Device_Library/Class/MIDI/Src/usbd_midi.c **** #if MIDI_OUT_PORTS_NUM >= 2
 516:Middlewares/ST/STM32_USB_Device_Library/Class/MIDI/Src/usbd_midi.c ****   MIDI_JACK_19,             /*BaAssocJackID(2): ID of the Embedded MIDI IN Jack.*/
 517:Middlewares/ST/STM32_USB_Device_Library/Class/MIDI/Src/usbd_midi.c **** #endif
 518:Middlewares/ST/STM32_USB_Device_Library/Class/MIDI/Src/usbd_midi.c **** #if MIDI_OUT_PORTS_NUM >= 3
 519:Middlewares/ST/STM32_USB_Device_Library/Class/MIDI/Src/usbd_midi.c ****   MIDI_JACK_21,             /*BaAssocJackID(3): ID of the Embedded MIDI IN Jack.*/
 520:Middlewares/ST/STM32_USB_Device_Library/Class/MIDI/Src/usbd_midi.c **** #endif
 521:Middlewares/ST/STM32_USB_Device_Library/Class/MIDI/Src/usbd_midi.c **** #if MIDI_OUT_PORTS_NUM >= 4
 522:Middlewares/ST/STM32_USB_Device_Library/Class/MIDI/Src/usbd_midi.c ****   MIDI_JACK_23,             /*BaAssocJackID(4): ID of the Embedded MIDI IN Jack.*/
 523:Middlewares/ST/STM32_USB_Device_Library/Class/MIDI/Src/usbd_midi.c **** #endif
 524:Middlewares/ST/STM32_USB_Device_Library/Class/MIDI/Src/usbd_midi.c **** #if MIDI_OUT_PORTS_NUM >= 5
 525:Middlewares/ST/STM32_USB_Device_Library/Class/MIDI/Src/usbd_midi.c ****   MIDI_JACK_25,             /*BaAssocJackID(5): ID of the Embedded MIDI IN Jack.*/
 526:Middlewares/ST/STM32_USB_Device_Library/Class/MIDI/Src/usbd_midi.c **** #endif
 527:Middlewares/ST/STM32_USB_Device_Library/Class/MIDI/Src/usbd_midi.c **** #if MIDI_OUT_PORTS_NUM >= 6
 528:Middlewares/ST/STM32_USB_Device_Library/Class/MIDI/Src/usbd_midi.c ****   MIDI_JACK_27,             /*BaAssocJackID(6): ID of the Embedded MIDI IN Jack.*/
 529:Middlewares/ST/STM32_USB_Device_Library/Class/MIDI/Src/usbd_midi.c **** #endif
 530:Middlewares/ST/STM32_USB_Device_Library/Class/MIDI/Src/usbd_midi.c **** #if MIDI_OUT_PORTS_NUM >= 7
 531:Middlewares/ST/STM32_USB_Device_Library/Class/MIDI/Src/usbd_midi.c ****   MIDI_JACK_29,             /*BaAssocJackID(7): ID of the Embedded MIDI IN Jack.*/
 532:Middlewares/ST/STM32_USB_Device_Library/Class/MIDI/Src/usbd_midi.c **** #endif
 533:Middlewares/ST/STM32_USB_Device_Library/Class/MIDI/Src/usbd_midi.c **** #if MIDI_OUT_PORTS_NUM >= 8
 534:Middlewares/ST/STM32_USB_Device_Library/Class/MIDI/Src/usbd_midi.c ****   MIDI_JACK_31,             /*BaAssocJackID(8): ID of the Embedded MIDI IN Jack.*/
 535:Middlewares/ST/STM32_USB_Device_Library/Class/MIDI/Src/usbd_midi.c **** #endif
 536:Middlewares/ST/STM32_USB_Device_Library/Class/MIDI/Src/usbd_midi.c **** 
 537:Middlewares/ST/STM32_USB_Device_Library/Class/MIDI/Src/usbd_midi.c ****   /******************** MIDI Adapter Standard Bulk IN Endpoint Descriptor ********************/
 538:Middlewares/ST/STM32_USB_Device_Library/Class/MIDI/Src/usbd_midi.c ****   0x09,                    /*bLength: Size of this descriptor, in bytes*/
 539:Middlewares/ST/STM32_USB_Device_Library/Class/MIDI/Src/usbd_midi.c ****   USB_DESC_TYPE_ENDPOINT,  /*bDescriptorType: ENDPOINT descriptor.*/
 540:Middlewares/ST/STM32_USB_Device_Library/Class/MIDI/Src/usbd_midi.c ****   MIDI_EPIN_ADDR,          /*bEndpointAddress: IN Endpoint 1.*/
 541:Middlewares/ST/STM32_USB_Device_Library/Class/MIDI/Src/usbd_midi.c ****   0x02,                    /*bmAttributes: Bulk, not shared.*/
 542:Middlewares/ST/STM32_USB_Device_Library/Class/MIDI/Src/usbd_midi.c ****   MIDI_EPIN_SIZE, 
 543:Middlewares/ST/STM32_USB_Device_Library/Class/MIDI/Src/usbd_midi.c ****   0x00,                    /*wMaxPacketSize*/
 544:Middlewares/ST/STM32_USB_Device_Library/Class/MIDI/Src/usbd_midi.c ****   0x00,                    /*bInterval: Ignored for Bulk. Set to zero.*/
 545:Middlewares/ST/STM32_USB_Device_Library/Class/MIDI/Src/usbd_midi.c ****   0x00,                    /*bRefresh: Unused.*/
ARM GAS  C:\Users\Kuanysh\AppData\Local\Temp\ccHztPRo.s 			page 11


 546:Middlewares/ST/STM32_USB_Device_Library/Class/MIDI/Src/usbd_midi.c ****   0x00,                    /*bSynchAddress: Unused.*/
 547:Middlewares/ST/STM32_USB_Device_Library/Class/MIDI/Src/usbd_midi.c **** 
 548:Middlewares/ST/STM32_USB_Device_Library/Class/MIDI/Src/usbd_midi.c ****   /******************** MIDI Adapter Class-specific Bulk IN Endpoint Descriptor *******************
 549:Middlewares/ST/STM32_USB_Device_Library/Class/MIDI/Src/usbd_midi.c ****   (4 + MIDI_IN_PORTS_NUM), /*bLength: Size of this descriptor, in bytes*/
 550:Middlewares/ST/STM32_USB_Device_Library/Class/MIDI/Src/usbd_midi.c ****   0x25,                    /*bDescriptorType: CS_ENDPOINT descriptor*/
 551:Middlewares/ST/STM32_USB_Device_Library/Class/MIDI/Src/usbd_midi.c ****   0x01,                    /*bDescriptorSubtype: MS_GENERAL subtype.*/
 552:Middlewares/ST/STM32_USB_Device_Library/Class/MIDI/Src/usbd_midi.c ****   MIDI_IN_PORTS_NUM,       /*bNumEmbMIDIJack: Number of embedded MIDI OUT Jacks.*/
 553:Middlewares/ST/STM32_USB_Device_Library/Class/MIDI/Src/usbd_midi.c **** #if MIDI_IN_PORTS_NUM >= 1
 554:Middlewares/ST/STM32_USB_Device_Library/Class/MIDI/Src/usbd_midi.c ****   MIDI_JACK_2,             /*BaAssocJackID(1): ID of the Embedded MIDI OUT Jack.*/
 555:Middlewares/ST/STM32_USB_Device_Library/Class/MIDI/Src/usbd_midi.c **** #endif
 556:Middlewares/ST/STM32_USB_Device_Library/Class/MIDI/Src/usbd_midi.c **** #if MIDI_IN_PORTS_NUM >= 2
 557:Middlewares/ST/STM32_USB_Device_Library/Class/MIDI/Src/usbd_midi.c ****   MIDI_JACK_4,             /*BaAssocJackID(2): ID of the Embedded MIDI OUT Jack.*/
 558:Middlewares/ST/STM32_USB_Device_Library/Class/MIDI/Src/usbd_midi.c **** #endif
 559:Middlewares/ST/STM32_USB_Device_Library/Class/MIDI/Src/usbd_midi.c **** #if MIDI_IN_PORTS_NUM >= 3
 560:Middlewares/ST/STM32_USB_Device_Library/Class/MIDI/Src/usbd_midi.c ****   MIDI_JACK_6,             /*BaAssocJackID(3): ID of the Embedded MIDI OUT Jack.*/
 561:Middlewares/ST/STM32_USB_Device_Library/Class/MIDI/Src/usbd_midi.c **** #endif
 562:Middlewares/ST/STM32_USB_Device_Library/Class/MIDI/Src/usbd_midi.c **** #if MIDI_IN_PORTS_NUM >= 4
 563:Middlewares/ST/STM32_USB_Device_Library/Class/MIDI/Src/usbd_midi.c ****   MIDI_JACK_8,             /*BaAssocJackID(4): ID of the Embedded MIDI OUT Jack.*/
 564:Middlewares/ST/STM32_USB_Device_Library/Class/MIDI/Src/usbd_midi.c **** #endif
 565:Middlewares/ST/STM32_USB_Device_Library/Class/MIDI/Src/usbd_midi.c **** #if MIDI_IN_PORTS_NUM >= 5
 566:Middlewares/ST/STM32_USB_Device_Library/Class/MIDI/Src/usbd_midi.c ****   MIDI_JACK_10,            /*BaAssocJackID(5): ID of the Embedded MIDI OUT Jack.*/
 567:Middlewares/ST/STM32_USB_Device_Library/Class/MIDI/Src/usbd_midi.c **** #endif
 568:Middlewares/ST/STM32_USB_Device_Library/Class/MIDI/Src/usbd_midi.c **** #if MIDI_IN_PORTS_NUM >= 6
 569:Middlewares/ST/STM32_USB_Device_Library/Class/MIDI/Src/usbd_midi.c ****   MIDI_JACK_12,            /*BaAssocJackID(6): ID of the Embedded MIDI OUT Jack.*/
 570:Middlewares/ST/STM32_USB_Device_Library/Class/MIDI/Src/usbd_midi.c **** #endif
 571:Middlewares/ST/STM32_USB_Device_Library/Class/MIDI/Src/usbd_midi.c **** #if MIDI_IN_PORTS_NUM >= 7
 572:Middlewares/ST/STM32_USB_Device_Library/Class/MIDI/Src/usbd_midi.c ****   MIDI_JACK_14,            /*BaAssocJackID(7): ID of the Embedded MIDI OUT Jack.*/
 573:Middlewares/ST/STM32_USB_Device_Library/Class/MIDI/Src/usbd_midi.c **** #endif
 574:Middlewares/ST/STM32_USB_Device_Library/Class/MIDI/Src/usbd_midi.c **** #if MIDI_IN_PORTS_NUM >= 8
 575:Middlewares/ST/STM32_USB_Device_Library/Class/MIDI/Src/usbd_midi.c ****   MIDI_JACK_16,            /*BaAssocJackID(8): ID of the Embedded MIDI OUT Jack.*/
 576:Middlewares/ST/STM32_USB_Device_Library/Class/MIDI/Src/usbd_midi.c **** #endif
 577:Middlewares/ST/STM32_USB_Device_Library/Class/MIDI/Src/usbd_midi.c **** };
 578:Middlewares/ST/STM32_USB_Device_Library/Class/MIDI/Src/usbd_midi.c **** 
 579:Middlewares/ST/STM32_USB_Device_Library/Class/MIDI/Src/usbd_midi.c **** /* USB Standard Device Descriptor */
 580:Middlewares/ST/STM32_USB_Device_Library/Class/MIDI/Src/usbd_midi.c **** __ALIGN_BEGIN static uint8_t USBD_MIDI_DeviceQualifierDesc[USB_LEN_DEV_QUALIFIER_DESC]  __ALIGN_END
 581:Middlewares/ST/STM32_USB_Device_Library/Class/MIDI/Src/usbd_midi.c **** {
 582:Middlewares/ST/STM32_USB_Device_Library/Class/MIDI/Src/usbd_midi.c ****   USB_LEN_DEV_QUALIFIER_DESC,
 583:Middlewares/ST/STM32_USB_Device_Library/Class/MIDI/Src/usbd_midi.c ****   USB_DESC_TYPE_DEVICE_QUALIFIER,
 584:Middlewares/ST/STM32_USB_Device_Library/Class/MIDI/Src/usbd_midi.c ****   0x00,
 585:Middlewares/ST/STM32_USB_Device_Library/Class/MIDI/Src/usbd_midi.c ****   0x02,
 586:Middlewares/ST/STM32_USB_Device_Library/Class/MIDI/Src/usbd_midi.c ****   0x00,
 587:Middlewares/ST/STM32_USB_Device_Library/Class/MIDI/Src/usbd_midi.c ****   0x00,
 588:Middlewares/ST/STM32_USB_Device_Library/Class/MIDI/Src/usbd_midi.c ****   0x00,
 589:Middlewares/ST/STM32_USB_Device_Library/Class/MIDI/Src/usbd_midi.c ****   0x40,
 590:Middlewares/ST/STM32_USB_Device_Library/Class/MIDI/Src/usbd_midi.c ****   0x01,
 591:Middlewares/ST/STM32_USB_Device_Library/Class/MIDI/Src/usbd_midi.c ****   0x00,
 592:Middlewares/ST/STM32_USB_Device_Library/Class/MIDI/Src/usbd_midi.c **** };
 593:Middlewares/ST/STM32_USB_Device_Library/Class/MIDI/Src/usbd_midi.c **** 
 594:Middlewares/ST/STM32_USB_Device_Library/Class/MIDI/Src/usbd_midi.c **** /**
 595:Middlewares/ST/STM32_USB_Device_Library/Class/MIDI/Src/usbd_midi.c ****   * @}
 596:Middlewares/ST/STM32_USB_Device_Library/Class/MIDI/Src/usbd_midi.c ****   */ 
 597:Middlewares/ST/STM32_USB_Device_Library/Class/MIDI/Src/usbd_midi.c **** 
 598:Middlewares/ST/STM32_USB_Device_Library/Class/MIDI/Src/usbd_midi.c **** /** @defgroup USBD_MIDI_Private_Functions
 599:Middlewares/ST/STM32_USB_Device_Library/Class/MIDI/Src/usbd_midi.c ****   * @{
 600:Middlewares/ST/STM32_USB_Device_Library/Class/MIDI/Src/usbd_midi.c ****   */ 
 601:Middlewares/ST/STM32_USB_Device_Library/Class/MIDI/Src/usbd_midi.c **** 
 602:Middlewares/ST/STM32_USB_Device_Library/Class/MIDI/Src/usbd_midi.c **** /**
ARM GAS  C:\Users\Kuanysh\AppData\Local\Temp\ccHztPRo.s 			page 12


 603:Middlewares/ST/STM32_USB_Device_Library/Class/MIDI/Src/usbd_midi.c ****   * @brief  USBD_MIDI_Init
 604:Middlewares/ST/STM32_USB_Device_Library/Class/MIDI/Src/usbd_midi.c ****   *         Initialize the MIDI interface
 605:Middlewares/ST/STM32_USB_Device_Library/Class/MIDI/Src/usbd_midi.c ****   * @param  pdev: device instance
 606:Middlewares/ST/STM32_USB_Device_Library/Class/MIDI/Src/usbd_midi.c ****   * @param  cfgidx: Configuration index
 607:Middlewares/ST/STM32_USB_Device_Library/Class/MIDI/Src/usbd_midi.c ****   * @retval status
 608:Middlewares/ST/STM32_USB_Device_Library/Class/MIDI/Src/usbd_midi.c ****   */
 609:Middlewares/ST/STM32_USB_Device_Library/Class/MIDI/Src/usbd_midi.c **** static uint8_t  USBD_MIDI_Init (USBD_HandleTypeDef *pdev, 
 610:Middlewares/ST/STM32_USB_Device_Library/Class/MIDI/Src/usbd_midi.c ****                                uint8_t cfgidx)
 611:Middlewares/ST/STM32_USB_Device_Library/Class/MIDI/Src/usbd_midi.c **** {
 612:Middlewares/ST/STM32_USB_Device_Library/Class/MIDI/Src/usbd_midi.c ****   uint8_t ret = 0;
 613:Middlewares/ST/STM32_USB_Device_Library/Class/MIDI/Src/usbd_midi.c ****   
 614:Middlewares/ST/STM32_USB_Device_Library/Class/MIDI/Src/usbd_midi.c ****   USBD_LL_OpenEP(pdev,
 615:Middlewares/ST/STM32_USB_Device_Library/Class/MIDI/Src/usbd_midi.c ****                  MIDI_EPIN_ADDR,
 616:Middlewares/ST/STM32_USB_Device_Library/Class/MIDI/Src/usbd_midi.c ****                  USBD_EP_TYPE_INTR,
 617:Middlewares/ST/STM32_USB_Device_Library/Class/MIDI/Src/usbd_midi.c ****                  MIDI_EPIN_SIZE);  
 618:Middlewares/ST/STM32_USB_Device_Library/Class/MIDI/Src/usbd_midi.c **** 
 619:Middlewares/ST/STM32_USB_Device_Library/Class/MIDI/Src/usbd_midi.c ****   USBD_LL_OpenEP(pdev,
 620:Middlewares/ST/STM32_USB_Device_Library/Class/MIDI/Src/usbd_midi.c ****                MIDI_EPOUT_ADDR,
 621:Middlewares/ST/STM32_USB_Device_Library/Class/MIDI/Src/usbd_midi.c ****                USBD_EP_TYPE_INTR,
 622:Middlewares/ST/STM32_USB_Device_Library/Class/MIDI/Src/usbd_midi.c ****                MIDI_EPOUT_SIZE);
 623:Middlewares/ST/STM32_USB_Device_Library/Class/MIDI/Src/usbd_midi.c ****   
 624:Middlewares/ST/STM32_USB_Device_Library/Class/MIDI/Src/usbd_midi.c ****   USBD_LL_PrepareReceive(pdev, 
 625:Middlewares/ST/STM32_USB_Device_Library/Class/MIDI/Src/usbd_midi.c ****                MIDI_EPOUT_ADDR,                                      
 626:Middlewares/ST/STM32_USB_Device_Library/Class/MIDI/Src/usbd_midi.c ****                usb_rx_buffer,
 627:Middlewares/ST/STM32_USB_Device_Library/Class/MIDI/Src/usbd_midi.c ****                MIDI_EPOUT_SIZE);    
 628:Middlewares/ST/STM32_USB_Device_Library/Class/MIDI/Src/usbd_midi.c ****   
 629:Middlewares/ST/STM32_USB_Device_Library/Class/MIDI/Src/usbd_midi.c ****   pdev->pClassData = USBD_malloc(sizeof (USBD_MIDI_HandleTypeDef));
 630:Middlewares/ST/STM32_USB_Device_Library/Class/MIDI/Src/usbd_midi.c ****   
 631:Middlewares/ST/STM32_USB_Device_Library/Class/MIDI/Src/usbd_midi.c ****   if(pdev->pClassData == NULL)
 632:Middlewares/ST/STM32_USB_Device_Library/Class/MIDI/Src/usbd_midi.c ****   {
 633:Middlewares/ST/STM32_USB_Device_Library/Class/MIDI/Src/usbd_midi.c ****     ret = 1; 
 634:Middlewares/ST/STM32_USB_Device_Library/Class/MIDI/Src/usbd_midi.c ****   }
 635:Middlewares/ST/STM32_USB_Device_Library/Class/MIDI/Src/usbd_midi.c ****   else
 636:Middlewares/ST/STM32_USB_Device_Library/Class/MIDI/Src/usbd_midi.c ****   {
 637:Middlewares/ST/STM32_USB_Device_Library/Class/MIDI/Src/usbd_midi.c ****     ((USBD_MIDI_HandleTypeDef *)pdev->pClassData)->state = MIDI_IDLE;
 638:Middlewares/ST/STM32_USB_Device_Library/Class/MIDI/Src/usbd_midi.c ****   }
 639:Middlewares/ST/STM32_USB_Device_Library/Class/MIDI/Src/usbd_midi.c ****   return ret;
 640:Middlewares/ST/STM32_USB_Device_Library/Class/MIDI/Src/usbd_midi.c **** }
 641:Middlewares/ST/STM32_USB_Device_Library/Class/MIDI/Src/usbd_midi.c **** 
 642:Middlewares/ST/STM32_USB_Device_Library/Class/MIDI/Src/usbd_midi.c **** /**
 643:Middlewares/ST/STM32_USB_Device_Library/Class/MIDI/Src/usbd_midi.c ****   * @brief  USBD_MIDI_Init
 644:Middlewares/ST/STM32_USB_Device_Library/Class/MIDI/Src/usbd_midi.c ****   *         DeInitialize the MIDI layer
 645:Middlewares/ST/STM32_USB_Device_Library/Class/MIDI/Src/usbd_midi.c ****   * @param  pdev: device instance
 646:Middlewares/ST/STM32_USB_Device_Library/Class/MIDI/Src/usbd_midi.c ****   * @param  cfgidx: Configuration index
 647:Middlewares/ST/STM32_USB_Device_Library/Class/MIDI/Src/usbd_midi.c ****   * @retval status
 648:Middlewares/ST/STM32_USB_Device_Library/Class/MIDI/Src/usbd_midi.c ****   */
 649:Middlewares/ST/STM32_USB_Device_Library/Class/MIDI/Src/usbd_midi.c **** static uint8_t  USBD_MIDI_DeInit (USBD_HandleTypeDef *pdev, 
 650:Middlewares/ST/STM32_USB_Device_Library/Class/MIDI/Src/usbd_midi.c ****                                  uint8_t cfgidx)
 651:Middlewares/ST/STM32_USB_Device_Library/Class/MIDI/Src/usbd_midi.c **** {
 652:Middlewares/ST/STM32_USB_Device_Library/Class/MIDI/Src/usbd_midi.c ****   /* Close MIDI EPs */
 653:Middlewares/ST/STM32_USB_Device_Library/Class/MIDI/Src/usbd_midi.c ****   USBD_LL_CloseEP(pdev, MIDI_EPIN_SIZE);
 654:Middlewares/ST/STM32_USB_Device_Library/Class/MIDI/Src/usbd_midi.c ****   
 655:Middlewares/ST/STM32_USB_Device_Library/Class/MIDI/Src/usbd_midi.c ****   /* FRee allocated memory */
 656:Middlewares/ST/STM32_USB_Device_Library/Class/MIDI/Src/usbd_midi.c ****   if(pdev->pClassData != NULL)
 657:Middlewares/ST/STM32_USB_Device_Library/Class/MIDI/Src/usbd_midi.c ****   {
 658:Middlewares/ST/STM32_USB_Device_Library/Class/MIDI/Src/usbd_midi.c ****     USBD_free(pdev->pClassData);
 659:Middlewares/ST/STM32_USB_Device_Library/Class/MIDI/Src/usbd_midi.c ****     pdev->pClassData = NULL;
ARM GAS  C:\Users\Kuanysh\AppData\Local\Temp\ccHztPRo.s 			page 13


 660:Middlewares/ST/STM32_USB_Device_Library/Class/MIDI/Src/usbd_midi.c ****   } 
 661:Middlewares/ST/STM32_USB_Device_Library/Class/MIDI/Src/usbd_midi.c ****   
 662:Middlewares/ST/STM32_USB_Device_Library/Class/MIDI/Src/usbd_midi.c ****   return USBD_OK;
 663:Middlewares/ST/STM32_USB_Device_Library/Class/MIDI/Src/usbd_midi.c **** }
 664:Middlewares/ST/STM32_USB_Device_Library/Class/MIDI/Src/usbd_midi.c **** 
 665:Middlewares/ST/STM32_USB_Device_Library/Class/MIDI/Src/usbd_midi.c **** /**
 666:Middlewares/ST/STM32_USB_Device_Library/Class/MIDI/Src/usbd_midi.c ****   * @brief  USBD_MIDI_Setup
 667:Middlewares/ST/STM32_USB_Device_Library/Class/MIDI/Src/usbd_midi.c ****   *         Handle the MIDI specific requests
 668:Middlewares/ST/STM32_USB_Device_Library/Class/MIDI/Src/usbd_midi.c ****   * @param  pdev: instance
 669:Middlewares/ST/STM32_USB_Device_Library/Class/MIDI/Src/usbd_midi.c ****   * @param  req: usb requests
 670:Middlewares/ST/STM32_USB_Device_Library/Class/MIDI/Src/usbd_midi.c ****   * @retval status
 671:Middlewares/ST/STM32_USB_Device_Library/Class/MIDI/Src/usbd_midi.c ****   */
 672:Middlewares/ST/STM32_USB_Device_Library/Class/MIDI/Src/usbd_midi.c **** static uint8_t  USBD_MIDI_Setup (USBD_HandleTypeDef *pdev, 
 673:Middlewares/ST/STM32_USB_Device_Library/Class/MIDI/Src/usbd_midi.c ****                                 USBD_SetupReqTypedef *req)
 674:Middlewares/ST/STM32_USB_Device_Library/Class/MIDI/Src/usbd_midi.c **** {
 675:Middlewares/ST/STM32_USB_Device_Library/Class/MIDI/Src/usbd_midi.c ****   uint16_t len = 0;
 676:Middlewares/ST/STM32_USB_Device_Library/Class/MIDI/Src/usbd_midi.c ****   uint8_t  *pbuf = NULL;
 677:Middlewares/ST/STM32_USB_Device_Library/Class/MIDI/Src/usbd_midi.c ****   USBD_MIDI_HandleTypeDef     *hmidi = pdev->pClassData;
 678:Middlewares/ST/STM32_USB_Device_Library/Class/MIDI/Src/usbd_midi.c ****   
 679:Middlewares/ST/STM32_USB_Device_Library/Class/MIDI/Src/usbd_midi.c ****   switch (req->bmRequest & USB_REQ_TYPE_MASK)
 680:Middlewares/ST/STM32_USB_Device_Library/Class/MIDI/Src/usbd_midi.c ****   {
 681:Middlewares/ST/STM32_USB_Device_Library/Class/MIDI/Src/usbd_midi.c ****   case USB_REQ_TYPE_CLASS :  
 682:Middlewares/ST/STM32_USB_Device_Library/Class/MIDI/Src/usbd_midi.c ****     switch (req->bRequest)
 683:Middlewares/ST/STM32_USB_Device_Library/Class/MIDI/Src/usbd_midi.c ****     {
 684:Middlewares/ST/STM32_USB_Device_Library/Class/MIDI/Src/usbd_midi.c ****       case MIDI_REQ_SET_PROTOCOL:
 685:Middlewares/ST/STM32_USB_Device_Library/Class/MIDI/Src/usbd_midi.c ****         hmidi->Protocol = (uint8_t)(req->wValue);
 686:Middlewares/ST/STM32_USB_Device_Library/Class/MIDI/Src/usbd_midi.c ****         break;
 687:Middlewares/ST/STM32_USB_Device_Library/Class/MIDI/Src/usbd_midi.c ****         
 688:Middlewares/ST/STM32_USB_Device_Library/Class/MIDI/Src/usbd_midi.c ****       case MIDI_REQ_GET_PROTOCOL:
 689:Middlewares/ST/STM32_USB_Device_Library/Class/MIDI/Src/usbd_midi.c ****         USBD_CtlSendData (pdev, 
 690:Middlewares/ST/STM32_USB_Device_Library/Class/MIDI/Src/usbd_midi.c ****                           (uint8_t *)&hmidi->Protocol,
 691:Middlewares/ST/STM32_USB_Device_Library/Class/MIDI/Src/usbd_midi.c ****                           1);    
 692:Middlewares/ST/STM32_USB_Device_Library/Class/MIDI/Src/usbd_midi.c ****         break;
 693:Middlewares/ST/STM32_USB_Device_Library/Class/MIDI/Src/usbd_midi.c ****         
 694:Middlewares/ST/STM32_USB_Device_Library/Class/MIDI/Src/usbd_midi.c ****       case MIDI_REQ_SET_IDLE:
 695:Middlewares/ST/STM32_USB_Device_Library/Class/MIDI/Src/usbd_midi.c ****         hmidi->IdleState = (uint8_t)(req->wValue >> 8);
 696:Middlewares/ST/STM32_USB_Device_Library/Class/MIDI/Src/usbd_midi.c ****         break;
 697:Middlewares/ST/STM32_USB_Device_Library/Class/MIDI/Src/usbd_midi.c ****         
 698:Middlewares/ST/STM32_USB_Device_Library/Class/MIDI/Src/usbd_midi.c ****       case MIDI_REQ_GET_IDLE:
 699:Middlewares/ST/STM32_USB_Device_Library/Class/MIDI/Src/usbd_midi.c ****         USBD_CtlSendData (pdev, 
 700:Middlewares/ST/STM32_USB_Device_Library/Class/MIDI/Src/usbd_midi.c ****                           (uint8_t *)&hmidi->IdleState,
 701:Middlewares/ST/STM32_USB_Device_Library/Class/MIDI/Src/usbd_midi.c ****                           1);        
 702:Middlewares/ST/STM32_USB_Device_Library/Class/MIDI/Src/usbd_midi.c ****         break;      
 703:Middlewares/ST/STM32_USB_Device_Library/Class/MIDI/Src/usbd_midi.c ****         
 704:Middlewares/ST/STM32_USB_Device_Library/Class/MIDI/Src/usbd_midi.c ****       default:
 705:Middlewares/ST/STM32_USB_Device_Library/Class/MIDI/Src/usbd_midi.c ****         USBD_CtlError (pdev, req);
 706:Middlewares/ST/STM32_USB_Device_Library/Class/MIDI/Src/usbd_midi.c ****         return USBD_FAIL; 
 707:Middlewares/ST/STM32_USB_Device_Library/Class/MIDI/Src/usbd_midi.c ****     }
 708:Middlewares/ST/STM32_USB_Device_Library/Class/MIDI/Src/usbd_midi.c ****     break;
 709:Middlewares/ST/STM32_USB_Device_Library/Class/MIDI/Src/usbd_midi.c ****     
 710:Middlewares/ST/STM32_USB_Device_Library/Class/MIDI/Src/usbd_midi.c ****   case USB_REQ_TYPE_STANDARD:
 711:Middlewares/ST/STM32_USB_Device_Library/Class/MIDI/Src/usbd_midi.c ****     switch (req->bRequest)
 712:Middlewares/ST/STM32_USB_Device_Library/Class/MIDI/Src/usbd_midi.c ****     {
 713:Middlewares/ST/STM32_USB_Device_Library/Class/MIDI/Src/usbd_midi.c ****       case USB_REQ_GET_DESCRIPTOR: 
 714:Middlewares/ST/STM32_USB_Device_Library/Class/MIDI/Src/usbd_midi.c ****         if( req->wValue >> 8 == MIDI_DESCRIPTOR_TYPE)
 715:Middlewares/ST/STM32_USB_Device_Library/Class/MIDI/Src/usbd_midi.c ****         {
 716:Middlewares/ST/STM32_USB_Device_Library/Class/MIDI/Src/usbd_midi.c ****           pbuf = USBD_MIDI_CfgDesc + USB_MIDI_CLASS_DESC_SHIFT;
ARM GAS  C:\Users\Kuanysh\AppData\Local\Temp\ccHztPRo.s 			page 14


 717:Middlewares/ST/STM32_USB_Device_Library/Class/MIDI/Src/usbd_midi.c ****           len = MIN(USB_MIDI_DESC_SIZE , req->wLength);
 718:Middlewares/ST/STM32_USB_Device_Library/Class/MIDI/Src/usbd_midi.c ****         }
 719:Middlewares/ST/STM32_USB_Device_Library/Class/MIDI/Src/usbd_midi.c ****         
 720:Middlewares/ST/STM32_USB_Device_Library/Class/MIDI/Src/usbd_midi.c ****         USBD_CtlSendData (pdev, pbuf, len);
 721:Middlewares/ST/STM32_USB_Device_Library/Class/MIDI/Src/usbd_midi.c ****         break;
 722:Middlewares/ST/STM32_USB_Device_Library/Class/MIDI/Src/usbd_midi.c ****         
 723:Middlewares/ST/STM32_USB_Device_Library/Class/MIDI/Src/usbd_midi.c ****       case USB_REQ_GET_INTERFACE :
 724:Middlewares/ST/STM32_USB_Device_Library/Class/MIDI/Src/usbd_midi.c ****         USBD_CtlSendData (pdev,
 725:Middlewares/ST/STM32_USB_Device_Library/Class/MIDI/Src/usbd_midi.c ****                           (uint8_t *)&hmidi->AltSetting,
 726:Middlewares/ST/STM32_USB_Device_Library/Class/MIDI/Src/usbd_midi.c ****                           1);
 727:Middlewares/ST/STM32_USB_Device_Library/Class/MIDI/Src/usbd_midi.c ****         break;
 728:Middlewares/ST/STM32_USB_Device_Library/Class/MIDI/Src/usbd_midi.c ****         
 729:Middlewares/ST/STM32_USB_Device_Library/Class/MIDI/Src/usbd_midi.c ****       case USB_REQ_SET_INTERFACE :
 730:Middlewares/ST/STM32_USB_Device_Library/Class/MIDI/Src/usbd_midi.c ****         hmidi->AltSetting = (uint8_t)(req->wValue);
 731:Middlewares/ST/STM32_USB_Device_Library/Class/MIDI/Src/usbd_midi.c ****         break;
 732:Middlewares/ST/STM32_USB_Device_Library/Class/MIDI/Src/usbd_midi.c ****     }
 733:Middlewares/ST/STM32_USB_Device_Library/Class/MIDI/Src/usbd_midi.c ****   }
 734:Middlewares/ST/STM32_USB_Device_Library/Class/MIDI/Src/usbd_midi.c ****   return USBD_OK;
 735:Middlewares/ST/STM32_USB_Device_Library/Class/MIDI/Src/usbd_midi.c **** }
 736:Middlewares/ST/STM32_USB_Device_Library/Class/MIDI/Src/usbd_midi.c **** 
 737:Middlewares/ST/STM32_USB_Device_Library/Class/MIDI/Src/usbd_midi.c **** /**
 738:Middlewares/ST/STM32_USB_Device_Library/Class/MIDI/Src/usbd_midi.c ****   * @brief  USBD_MIDI_GetDeviceState 
 739:Middlewares/ST/STM32_USB_Device_Library/Class/MIDI/Src/usbd_midi.c ****   *         Get MIDI State
 740:Middlewares/ST/STM32_USB_Device_Library/Class/MIDI/Src/usbd_midi.c ****   * @param  pdev: device instance
 741:Middlewares/ST/STM32_USB_Device_Library/Class/MIDI/Src/usbd_midi.c ****   * @retval usb device state  (USBD_STATE_DEFAULT, USBD_STATE_ADDRESSED, USBD_STATE_CONFIGURED, USB
 742:Middlewares/ST/STM32_USB_Device_Library/Class/MIDI/Src/usbd_midi.c ****   */
 743:Middlewares/ST/STM32_USB_Device_Library/Class/MIDI/Src/usbd_midi.c **** uint8_t USBD_MIDI_GetDeviceState(USBD_HandleTypeDef  *pdev)
 744:Middlewares/ST/STM32_USB_Device_Library/Class/MIDI/Src/usbd_midi.c **** {
 745:Middlewares/ST/STM32_USB_Device_Library/Class/MIDI/Src/usbd_midi.c ****   return pdev->dev_state;
 746:Middlewares/ST/STM32_USB_Device_Library/Class/MIDI/Src/usbd_midi.c **** }
 747:Middlewares/ST/STM32_USB_Device_Library/Class/MIDI/Src/usbd_midi.c **** 
 748:Middlewares/ST/STM32_USB_Device_Library/Class/MIDI/Src/usbd_midi.c **** /**
 749:Middlewares/ST/STM32_USB_Device_Library/Class/MIDI/Src/usbd_midi.c ****   * @brief  USBD_MIDI_GetState 
 750:Middlewares/ST/STM32_USB_Device_Library/Class/MIDI/Src/usbd_midi.c ****   *         Get MIDI State
 751:Middlewares/ST/STM32_USB_Device_Library/Class/MIDI/Src/usbd_midi.c ****   * @param  pdev: device instance
 752:Middlewares/ST/STM32_USB_Device_Library/Class/MIDI/Src/usbd_midi.c ****   * @retval usb state  (MIDI_IDLE, MIDI_BUSY)
 753:Middlewares/ST/STM32_USB_Device_Library/Class/MIDI/Src/usbd_midi.c ****   */
 754:Middlewares/ST/STM32_USB_Device_Library/Class/MIDI/Src/usbd_midi.c **** uint8_t USBD_MIDI_GetState(USBD_HandleTypeDef  *pdev)
 755:Middlewares/ST/STM32_USB_Device_Library/Class/MIDI/Src/usbd_midi.c **** {
 756:Middlewares/ST/STM32_USB_Device_Library/Class/MIDI/Src/usbd_midi.c ****   return ((USBD_MIDI_HandleTypeDef *)pdev->pClassData)->state;
 757:Middlewares/ST/STM32_USB_Device_Library/Class/MIDI/Src/usbd_midi.c **** }
 758:Middlewares/ST/STM32_USB_Device_Library/Class/MIDI/Src/usbd_midi.c **** 
 759:Middlewares/ST/STM32_USB_Device_Library/Class/MIDI/Src/usbd_midi.c **** /**
 760:Middlewares/ST/STM32_USB_Device_Library/Class/MIDI/Src/usbd_midi.c ****   * @brief  USBD_MIDI_SendReport 
 761:Middlewares/ST/STM32_USB_Device_Library/Class/MIDI/Src/usbd_midi.c ****   *         Send MIDI Report
 762:Middlewares/ST/STM32_USB_Device_Library/Class/MIDI/Src/usbd_midi.c ****   * @param  pdev: device instance
 763:Middlewares/ST/STM32_USB_Device_Library/Class/MIDI/Src/usbd_midi.c ****   * @param  buff: pointer to report
 764:Middlewares/ST/STM32_USB_Device_Library/Class/MIDI/Src/usbd_midi.c ****   * @retval status
 765:Middlewares/ST/STM32_USB_Device_Library/Class/MIDI/Src/usbd_midi.c ****   */
 766:Middlewares/ST/STM32_USB_Device_Library/Class/MIDI/Src/usbd_midi.c **** uint8_t USBD_MIDI_SendReport     (USBD_HandleTypeDef  *pdev, 
 767:Middlewares/ST/STM32_USB_Device_Library/Class/MIDI/Src/usbd_midi.c ****                                  uint8_t *report,
 768:Middlewares/ST/STM32_USB_Device_Library/Class/MIDI/Src/usbd_midi.c ****                                  uint16_t len)
 769:Middlewares/ST/STM32_USB_Device_Library/Class/MIDI/Src/usbd_midi.c **** {
 770:Middlewares/ST/STM32_USB_Device_Library/Class/MIDI/Src/usbd_midi.c ****   USBD_MIDI_HandleTypeDef *hmidi = pdev->pClassData;
 771:Middlewares/ST/STM32_USB_Device_Library/Class/MIDI/Src/usbd_midi.c ****   
 772:Middlewares/ST/STM32_USB_Device_Library/Class/MIDI/Src/usbd_midi.c ****   if (pdev->dev_state == USBD_STATE_CONFIGURED)
 773:Middlewares/ST/STM32_USB_Device_Library/Class/MIDI/Src/usbd_midi.c ****   {
ARM GAS  C:\Users\Kuanysh\AppData\Local\Temp\ccHztPRo.s 			page 15


 774:Middlewares/ST/STM32_USB_Device_Library/Class/MIDI/Src/usbd_midi.c ****     if(hmidi->state == MIDI_IDLE)
 775:Middlewares/ST/STM32_USB_Device_Library/Class/MIDI/Src/usbd_midi.c ****     {
 776:Middlewares/ST/STM32_USB_Device_Library/Class/MIDI/Src/usbd_midi.c ****       hmidi->state = MIDI_BUSY;
 777:Middlewares/ST/STM32_USB_Device_Library/Class/MIDI/Src/usbd_midi.c ****       USBD_LL_Transmit (pdev, MIDI_EPIN_ADDR, report, len);
 778:Middlewares/ST/STM32_USB_Device_Library/Class/MIDI/Src/usbd_midi.c ****     }
 779:Middlewares/ST/STM32_USB_Device_Library/Class/MIDI/Src/usbd_midi.c ****   }
 780:Middlewares/ST/STM32_USB_Device_Library/Class/MIDI/Src/usbd_midi.c ****   return USBD_OK;
 781:Middlewares/ST/STM32_USB_Device_Library/Class/MIDI/Src/usbd_midi.c **** }
 782:Middlewares/ST/STM32_USB_Device_Library/Class/MIDI/Src/usbd_midi.c **** 
 783:Middlewares/ST/STM32_USB_Device_Library/Class/MIDI/Src/usbd_midi.c **** /**
 784:Middlewares/ST/STM32_USB_Device_Library/Class/MIDI/Src/usbd_midi.c ****   * @brief  USBD_MIDI_GetCfgDesc 
 785:Middlewares/ST/STM32_USB_Device_Library/Class/MIDI/Src/usbd_midi.c ****   *         return configuration descriptor
 786:Middlewares/ST/STM32_USB_Device_Library/Class/MIDI/Src/usbd_midi.c ****   * @param  speed : current device speed
 787:Middlewares/ST/STM32_USB_Device_Library/Class/MIDI/Src/usbd_midi.c ****   * @param  length : pointer data length
 788:Middlewares/ST/STM32_USB_Device_Library/Class/MIDI/Src/usbd_midi.c ****   * @retval pointer to descriptor buffer
 789:Middlewares/ST/STM32_USB_Device_Library/Class/MIDI/Src/usbd_midi.c ****   */
 790:Middlewares/ST/STM32_USB_Device_Library/Class/MIDI/Src/usbd_midi.c **** static uint8_t  *USBD_MIDI_GetCfgDesc (uint16_t *length)
 791:Middlewares/ST/STM32_USB_Device_Library/Class/MIDI/Src/usbd_midi.c **** {
  27              		.loc 1 791 1 view -0
  28              		.cfi_startproc
  29              		@ args = 0, pretend = 0, frame = 0
  30              		@ frame_needed = 0, uses_anonymous_args = 0
  31              		@ link register save eliminated.
 792:Middlewares/ST/STM32_USB_Device_Library/Class/MIDI/Src/usbd_midi.c ****   *length = sizeof (USBD_MIDI_CfgDesc);
  32              		.loc 1 792 3 view .LVU1
  33              		.loc 1 792 11 is_stmt 0 view .LVU2
  34 0000 7323     		movs	r3, #115
  35 0002 0380     		strh	r3, [r0]	@ movhi
 793:Middlewares/ST/STM32_USB_Device_Library/Class/MIDI/Src/usbd_midi.c ****   return USBD_MIDI_CfgDesc;
  36              		.loc 1 793 3 is_stmt 1 view .LVU3
 794:Middlewares/ST/STM32_USB_Device_Library/Class/MIDI/Src/usbd_midi.c **** }
  37              		.loc 1 794 1 is_stmt 0 view .LVU4
  38 0004 0048     		ldr	r0, .L2
  39              	.LVL1:
  40              		.loc 1 794 1 view .LVU5
  41 0006 7047     		bx	lr
  42              	.L3:
  43              		.align	2
  44              	.L2:
  45 0008 00000000 		.word	.LANCHOR0
  46              		.cfi_endproc
  47              	.LFE74:
  49              		.section	.text.USBD_MIDI_DataIn,"ax",%progbits
  50              		.align	1
  51              		.syntax unified
  52              		.thumb
  53              		.thumb_func
  55              	USBD_MIDI_DataIn:
  56              	.LVL2:
  57              	.LFB76:
 795:Middlewares/ST/STM32_USB_Device_Library/Class/MIDI/Src/usbd_midi.c **** 
 796:Middlewares/ST/STM32_USB_Device_Library/Class/MIDI/Src/usbd_midi.c **** /**
 797:Middlewares/ST/STM32_USB_Device_Library/Class/MIDI/Src/usbd_midi.c **** * @brief  DeviceQualifierDescriptor 
 798:Middlewares/ST/STM32_USB_Device_Library/Class/MIDI/Src/usbd_midi.c **** *         return Device Qualifier descriptor
 799:Middlewares/ST/STM32_USB_Device_Library/Class/MIDI/Src/usbd_midi.c **** * @param  length : pointer data length
 800:Middlewares/ST/STM32_USB_Device_Library/Class/MIDI/Src/usbd_midi.c **** * @retval pointer to descriptor buffer
 801:Middlewares/ST/STM32_USB_Device_Library/Class/MIDI/Src/usbd_midi.c **** */
ARM GAS  C:\Users\Kuanysh\AppData\Local\Temp\ccHztPRo.s 			page 16


 802:Middlewares/ST/STM32_USB_Device_Library/Class/MIDI/Src/usbd_midi.c **** uint8_t  *USBD_MIDI_DeviceQualifierDescriptor (uint16_t *length)
 803:Middlewares/ST/STM32_USB_Device_Library/Class/MIDI/Src/usbd_midi.c **** {
 804:Middlewares/ST/STM32_USB_Device_Library/Class/MIDI/Src/usbd_midi.c ****   *length = sizeof (USBD_MIDI_DeviceQualifierDesc);
 805:Middlewares/ST/STM32_USB_Device_Library/Class/MIDI/Src/usbd_midi.c ****   return USBD_MIDI_DeviceQualifierDesc;
 806:Middlewares/ST/STM32_USB_Device_Library/Class/MIDI/Src/usbd_midi.c **** }
 807:Middlewares/ST/STM32_USB_Device_Library/Class/MIDI/Src/usbd_midi.c **** 
 808:Middlewares/ST/STM32_USB_Device_Library/Class/MIDI/Src/usbd_midi.c **** 
 809:Middlewares/ST/STM32_USB_Device_Library/Class/MIDI/Src/usbd_midi.c **** /**
 810:Middlewares/ST/STM32_USB_Device_Library/Class/MIDI/Src/usbd_midi.c ****   * @brief  USBD_MIDI_DataIn
 811:Middlewares/ST/STM32_USB_Device_Library/Class/MIDI/Src/usbd_midi.c ****   *         handle data IN Stage
 812:Middlewares/ST/STM32_USB_Device_Library/Class/MIDI/Src/usbd_midi.c ****   * @param  pdev: device instance
 813:Middlewares/ST/STM32_USB_Device_Library/Class/MIDI/Src/usbd_midi.c ****   * @param  epnum: endpoint index
 814:Middlewares/ST/STM32_USB_Device_Library/Class/MIDI/Src/usbd_midi.c ****   * @retval status
 815:Middlewares/ST/STM32_USB_Device_Library/Class/MIDI/Src/usbd_midi.c ****   */
 816:Middlewares/ST/STM32_USB_Device_Library/Class/MIDI/Src/usbd_midi.c **** static uint8_t  USBD_MIDI_DataIn (USBD_HandleTypeDef *pdev, 
 817:Middlewares/ST/STM32_USB_Device_Library/Class/MIDI/Src/usbd_midi.c ****                               uint8_t epnum)
 818:Middlewares/ST/STM32_USB_Device_Library/Class/MIDI/Src/usbd_midi.c **** {
  58              		.loc 1 818 1 is_stmt 1 view -0
  59              		.cfi_startproc
  60              		@ args = 0, pretend = 0, frame = 0
  61              		@ frame_needed = 0, uses_anonymous_args = 0
  62              		@ link register save eliminated.
 819:Middlewares/ST/STM32_USB_Device_Library/Class/MIDI/Src/usbd_midi.c ****   
 820:Middlewares/ST/STM32_USB_Device_Library/Class/MIDI/Src/usbd_midi.c ****   /* Ensure that the FIFO is empty before a new transfer, this condition could 
 821:Middlewares/ST/STM32_USB_Device_Library/Class/MIDI/Src/usbd_midi.c ****   be caused by  a new transfer before the end of the previous transfer */
 822:Middlewares/ST/STM32_USB_Device_Library/Class/MIDI/Src/usbd_midi.c ****   ((USBD_MIDI_HandleTypeDef *)pdev->pClassData)->state = MIDI_IDLE;
  63              		.loc 1 822 3 view .LVU7
  64              		.loc 1 822 35 is_stmt 0 view .LVU8
  65 0000 D0F8B832 		ldr	r3, [r0, #696]
  66              		.loc 1 822 56 view .LVU9
  67 0004 0020     		movs	r0, #0
  68              	.LVL3:
  69              		.loc 1 822 56 view .LVU10
  70 0006 1873     		strb	r0, [r3, #12]
 823:Middlewares/ST/STM32_USB_Device_Library/Class/MIDI/Src/usbd_midi.c ****   return USBD_OK;
  71              		.loc 1 823 3 is_stmt 1 view .LVU11
 824:Middlewares/ST/STM32_USB_Device_Library/Class/MIDI/Src/usbd_midi.c **** }
  72              		.loc 1 824 1 is_stmt 0 view .LVU12
  73 0008 7047     		bx	lr
  74              		.cfi_endproc
  75              	.LFE76:
  77              		.section	.text.USBD_MIDI_GetDeviceQualifierDesc,"ax",%progbits
  78              		.align	1
  79              		.syntax unified
  80              		.thumb
  81              		.thumb_func
  83              	USBD_MIDI_GetDeviceQualifierDesc:
  84              	.LVL4:
  85              	.LFB79:
 825:Middlewares/ST/STM32_USB_Device_Library/Class/MIDI/Src/usbd_midi.c **** 
 826:Middlewares/ST/STM32_USB_Device_Library/Class/MIDI/Src/usbd_midi.c **** /**
 827:Middlewares/ST/STM32_USB_Device_Library/Class/MIDI/Src/usbd_midi.c ****   * @brief  USBD_MIDI_DataOut
 828:Middlewares/ST/STM32_USB_Device_Library/Class/MIDI/Src/usbd_midi.c ****   *         handle data OUT Stage
 829:Middlewares/ST/STM32_USB_Device_Library/Class/MIDI/Src/usbd_midi.c ****   * @param  pdev: device instance
 830:Middlewares/ST/STM32_USB_Device_Library/Class/MIDI/Src/usbd_midi.c ****   * @param  epnum: endpoint index
 831:Middlewares/ST/STM32_USB_Device_Library/Class/MIDI/Src/usbd_midi.c ****   * @retval status
 832:Middlewares/ST/STM32_USB_Device_Library/Class/MIDI/Src/usbd_midi.c ****   */
ARM GAS  C:\Users\Kuanysh\AppData\Local\Temp\ccHztPRo.s 			page 17


 833:Middlewares/ST/STM32_USB_Device_Library/Class/MIDI/Src/usbd_midi.c **** static uint8_t  USBD_MIDI_DataOut (USBD_HandleTypeDef *pdev, uint8_t epnum)
 834:Middlewares/ST/STM32_USB_Device_Library/Class/MIDI/Src/usbd_midi.c **** {
 835:Middlewares/ST/STM32_USB_Device_Library/Class/MIDI/Src/usbd_midi.c ****   if (epnum != (MIDI_EPOUT_ADDR & 0x0F)) return USBD_FAIL;
 836:Middlewares/ST/STM32_USB_Device_Library/Class/MIDI/Src/usbd_midi.c **** 
 837:Middlewares/ST/STM32_USB_Device_Library/Class/MIDI/Src/usbd_midi.c ****   USBD_MIDI_DataInHandler(usb_rx_buffer, MIDI_EPOUT_SIZE);
 838:Middlewares/ST/STM32_USB_Device_Library/Class/MIDI/Src/usbd_midi.c ****   
 839:Middlewares/ST/STM32_USB_Device_Library/Class/MIDI/Src/usbd_midi.c ****   memset(usb_rx_buffer, 0, MIDI_EPOUT_SIZE);
 840:Middlewares/ST/STM32_USB_Device_Library/Class/MIDI/Src/usbd_midi.c ****   
 841:Middlewares/ST/STM32_USB_Device_Library/Class/MIDI/Src/usbd_midi.c ****   USBD_LL_PrepareReceive(pdev, MIDI_EPOUT_ADDR, usb_rx_buffer, MIDI_EPOUT_SIZE);  
 842:Middlewares/ST/STM32_USB_Device_Library/Class/MIDI/Src/usbd_midi.c ****   
 843:Middlewares/ST/STM32_USB_Device_Library/Class/MIDI/Src/usbd_midi.c ****   return USBD_OK;
 844:Middlewares/ST/STM32_USB_Device_Library/Class/MIDI/Src/usbd_midi.c **** }
 845:Middlewares/ST/STM32_USB_Device_Library/Class/MIDI/Src/usbd_midi.c **** 
 846:Middlewares/ST/STM32_USB_Device_Library/Class/MIDI/Src/usbd_midi.c **** /**
 847:Middlewares/ST/STM32_USB_Device_Library/Class/MIDI/Src/usbd_midi.c ****   * @brief  USBD_MIDI_DataInHandler
 848:Middlewares/ST/STM32_USB_Device_Library/Class/MIDI/Src/usbd_midi.c ****   * @param  usb_rx_buffer: midi messages buffer
 849:Middlewares/ST/STM32_USB_Device_Library/Class/MIDI/Src/usbd_midi.c ****   * @param  usb_rx_buffer_length: midi messages buffer length
 850:Middlewares/ST/STM32_USB_Device_Library/Class/MIDI/Src/usbd_midi.c ****   */
 851:Middlewares/ST/STM32_USB_Device_Library/Class/MIDI/Src/usbd_midi.c **** __weak extern void USBD_MIDI_DataInHandler(uint8_t * usb_rx_buffer, uint8_t usb_rx_buffer_length)
 852:Middlewares/ST/STM32_USB_Device_Library/Class/MIDI/Src/usbd_midi.c **** {
 853:Middlewares/ST/STM32_USB_Device_Library/Class/MIDI/Src/usbd_midi.c ****   // For user implementation.
 854:Middlewares/ST/STM32_USB_Device_Library/Class/MIDI/Src/usbd_midi.c **** }
 855:Middlewares/ST/STM32_USB_Device_Library/Class/MIDI/Src/usbd_midi.c **** 
 856:Middlewares/ST/STM32_USB_Device_Library/Class/MIDI/Src/usbd_midi.c **** /**
 857:Middlewares/ST/STM32_USB_Device_Library/Class/MIDI/Src/usbd_midi.c **** * @brief  DeviceQualifierDescriptor 
 858:Middlewares/ST/STM32_USB_Device_Library/Class/MIDI/Src/usbd_midi.c **** *         return Device Qualifier descriptor
 859:Middlewares/ST/STM32_USB_Device_Library/Class/MIDI/Src/usbd_midi.c **** * @param  length : pointer data length
 860:Middlewares/ST/STM32_USB_Device_Library/Class/MIDI/Src/usbd_midi.c **** * @retval pointer to descriptor buffer
 861:Middlewares/ST/STM32_USB_Device_Library/Class/MIDI/Src/usbd_midi.c **** */
 862:Middlewares/ST/STM32_USB_Device_Library/Class/MIDI/Src/usbd_midi.c **** static uint8_t  *USBD_MIDI_GetDeviceQualifierDesc (uint16_t *length)
 863:Middlewares/ST/STM32_USB_Device_Library/Class/MIDI/Src/usbd_midi.c **** {
  86              		.loc 1 863 1 is_stmt 1 view -0
  87              		.cfi_startproc
  88              		@ args = 0, pretend = 0, frame = 0
  89              		@ frame_needed = 0, uses_anonymous_args = 0
  90              		@ link register save eliminated.
 864:Middlewares/ST/STM32_USB_Device_Library/Class/MIDI/Src/usbd_midi.c ****   *length = sizeof (USBD_MIDI_DeviceQualifierDesc);
  91              		.loc 1 864 3 view .LVU14
  92              		.loc 1 864 11 is_stmt 0 view .LVU15
  93 0000 0A23     		movs	r3, #10
  94 0002 0380     		strh	r3, [r0]	@ movhi
 865:Middlewares/ST/STM32_USB_Device_Library/Class/MIDI/Src/usbd_midi.c ****   return USBD_MIDI_DeviceQualifierDesc;
  95              		.loc 1 865 3 is_stmt 1 view .LVU16
 866:Middlewares/ST/STM32_USB_Device_Library/Class/MIDI/Src/usbd_midi.c **** }
  96              		.loc 1 866 1 is_stmt 0 view .LVU17
  97 0004 0048     		ldr	r0, .L6
  98              	.LVL5:
  99              		.loc 1 866 1 view .LVU18
 100 0006 7047     		bx	lr
 101              	.L7:
 102              		.align	2
 103              	.L6:
 104 0008 00000000 		.word	.LANCHOR1
 105              		.cfi_endproc
 106              	.LFE79:
 108              		.section	.text.USBD_MIDI_Setup,"ax",%progbits
 109              		.align	1
ARM GAS  C:\Users\Kuanysh\AppData\Local\Temp\ccHztPRo.s 			page 18


 110              		.syntax unified
 111              		.thumb
 112              		.thumb_func
 114              	USBD_MIDI_Setup:
 115              	.LVL6:
 116              	.LFB70:
 674:Middlewares/ST/STM32_USB_Device_Library/Class/MIDI/Src/usbd_midi.c ****   uint16_t len = 0;
 117              		.loc 1 674 1 is_stmt 1 view -0
 118              		.cfi_startproc
 119              		@ args = 0, pretend = 0, frame = 0
 120              		@ frame_needed = 0, uses_anonymous_args = 0
 674:Middlewares/ST/STM32_USB_Device_Library/Class/MIDI/Src/usbd_midi.c ****   uint16_t len = 0;
 121              		.loc 1 674 1 is_stmt 0 view .LVU20
 122 0000 38B5     		push	{r3, r4, r5, lr}
 123              	.LCFI0:
 124              		.cfi_def_cfa_offset 16
 125              		.cfi_offset 3, -16
 126              		.cfi_offset 4, -12
 127              		.cfi_offset 5, -8
 128              		.cfi_offset 14, -4
 675:Middlewares/ST/STM32_USB_Device_Library/Class/MIDI/Src/usbd_midi.c ****   uint8_t  *pbuf = NULL;
 129              		.loc 1 675 3 is_stmt 1 view .LVU21
 130              	.LVL7:
 676:Middlewares/ST/STM32_USB_Device_Library/Class/MIDI/Src/usbd_midi.c ****   USBD_MIDI_HandleTypeDef     *hmidi = pdev->pClassData;
 131              		.loc 1 676 3 view .LVU22
 677:Middlewares/ST/STM32_USB_Device_Library/Class/MIDI/Src/usbd_midi.c ****   
 132              		.loc 1 677 3 view .LVU23
 677:Middlewares/ST/STM32_USB_Device_Library/Class/MIDI/Src/usbd_midi.c ****   
 133              		.loc 1 677 32 is_stmt 0 view .LVU24
 134 0002 D0F8B852 		ldr	r5, [r0, #696]
 135              	.LVL8:
 679:Middlewares/ST/STM32_USB_Device_Library/Class/MIDI/Src/usbd_midi.c ****   {
 136              		.loc 1 679 3 is_stmt 1 view .LVU25
 679:Middlewares/ST/STM32_USB_Device_Library/Class/MIDI/Src/usbd_midi.c ****   {
 137              		.loc 1 679 14 is_stmt 0 view .LVU26
 138 0006 0C78     		ldrb	r4, [r1]	@ zero_extendqisi2
 679:Middlewares/ST/STM32_USB_Device_Library/Class/MIDI/Src/usbd_midi.c ****   {
 139              		.loc 1 679 3 view .LVU27
 140 0008 14F06004 		ands	r4, r4, #96
 141 000c 25D0     		beq	.L9
 142 000e 202C     		cmp	r4, #32
 143 0010 42D1     		bne	.L20
 682:Middlewares/ST/STM32_USB_Device_Library/Class/MIDI/Src/usbd_midi.c ****     {
 144              		.loc 1 682 5 is_stmt 1 view .LVU28
 682:Middlewares/ST/STM32_USB_Device_Library/Class/MIDI/Src/usbd_midi.c ****     {
 145              		.loc 1 682 16 is_stmt 0 view .LVU29
 146 0012 4B78     		ldrb	r3, [r1, #1]	@ zero_extendqisi2
 147 0014 023B     		subs	r3, r3, #2
 148 0016 092B     		cmp	r3, #9
 149 0018 1BD8     		bhi	.L11
 150 001a DFE803F0 		tbb	[pc, r3]
 151              	.L13:
 152 001e 14       		.byte	(.L16-.L13)/2
 153 001f 09       		.byte	(.L15-.L13)/2
 154 0020 1A       		.byte	(.L11-.L13)/2
 155 0021 1A       		.byte	(.L11-.L13)/2
 156 0022 1A       		.byte	(.L11-.L13)/2
ARM GAS  C:\Users\Kuanysh\AppData\Local\Temp\ccHztPRo.s 			page 19


 157 0023 1A       		.byte	(.L11-.L13)/2
 158 0024 1A       		.byte	(.L11-.L13)/2
 159 0025 1A       		.byte	(.L11-.L13)/2
 160 0026 0F       		.byte	(.L14-.L13)/2
 161 0027 05       		.byte	(.L12-.L13)/2
 162              		.p2align 1
 163              	.L12:
 685:Middlewares/ST/STM32_USB_Device_Library/Class/MIDI/Src/usbd_midi.c ****         break;
 164              		.loc 1 685 9 is_stmt 1 view .LVU30
 685:Middlewares/ST/STM32_USB_Device_Library/Class/MIDI/Src/usbd_midi.c ****         break;
 165              		.loc 1 685 27 is_stmt 0 view .LVU31
 166 0028 8B78     		ldrb	r3, [r1, #2]	@ zero_extendqisi2
 685:Middlewares/ST/STM32_USB_Device_Library/Class/MIDI/Src/usbd_midi.c ****         break;
 167              		.loc 1 685 25 view .LVU32
 168 002a 2B60     		str	r3, [r5]
 686:Middlewares/ST/STM32_USB_Device_Library/Class/MIDI/Src/usbd_midi.c ****         
 169              		.loc 1 686 9 is_stmt 1 view .LVU33
 734:Middlewares/ST/STM32_USB_Device_Library/Class/MIDI/Src/usbd_midi.c **** }
 170              		.loc 1 734 10 is_stmt 0 view .LVU34
 171 002c 0024     		movs	r4, #0
 686:Middlewares/ST/STM32_USB_Device_Library/Class/MIDI/Src/usbd_midi.c ****         
 172              		.loc 1 686 9 view .LVU35
 173 002e 34E0     		b	.L10
 174              	.L15:
 689:Middlewares/ST/STM32_USB_Device_Library/Class/MIDI/Src/usbd_midi.c ****                           (uint8_t *)&hmidi->Protocol,
 175              		.loc 1 689 9 is_stmt 1 view .LVU36
 176 0030 0122     		movs	r2, #1
 177 0032 2946     		mov	r1, r5
 178              	.LVL9:
 689:Middlewares/ST/STM32_USB_Device_Library/Class/MIDI/Src/usbd_midi.c ****                           (uint8_t *)&hmidi->Protocol,
 179              		.loc 1 689 9 is_stmt 0 view .LVU37
 180 0034 FFF7FEFF 		bl	USBD_CtlSendData
 181              	.LVL10:
 692:Middlewares/ST/STM32_USB_Device_Library/Class/MIDI/Src/usbd_midi.c ****         
 182              		.loc 1 692 9 is_stmt 1 view .LVU38
 734:Middlewares/ST/STM32_USB_Device_Library/Class/MIDI/Src/usbd_midi.c **** }
 183              		.loc 1 734 10 is_stmt 0 view .LVU39
 184 0038 0024     		movs	r4, #0
 692:Middlewares/ST/STM32_USB_Device_Library/Class/MIDI/Src/usbd_midi.c ****         
 185              		.loc 1 692 9 view .LVU40
 186 003a 2EE0     		b	.L10
 187              	.LVL11:
 188              	.L14:
 695:Middlewares/ST/STM32_USB_Device_Library/Class/MIDI/Src/usbd_midi.c ****         break;
 189              		.loc 1 695 9 is_stmt 1 view .LVU41
 695:Middlewares/ST/STM32_USB_Device_Library/Class/MIDI/Src/usbd_midi.c ****         break;
 190              		.loc 1 695 41 is_stmt 0 view .LVU42
 191 003c 4B88     		ldrh	r3, [r1, #2]
 695:Middlewares/ST/STM32_USB_Device_Library/Class/MIDI/Src/usbd_midi.c ****         break;
 192              		.loc 1 695 28 view .LVU43
 193 003e 1B0A     		lsrs	r3, r3, #8
 695:Middlewares/ST/STM32_USB_Device_Library/Class/MIDI/Src/usbd_midi.c ****         break;
 194              		.loc 1 695 26 view .LVU44
 195 0040 6B60     		str	r3, [r5, #4]
 696:Middlewares/ST/STM32_USB_Device_Library/Class/MIDI/Src/usbd_midi.c ****         
 196              		.loc 1 696 9 is_stmt 1 view .LVU45
 734:Middlewares/ST/STM32_USB_Device_Library/Class/MIDI/Src/usbd_midi.c **** }
ARM GAS  C:\Users\Kuanysh\AppData\Local\Temp\ccHztPRo.s 			page 20


 197              		.loc 1 734 10 is_stmt 0 view .LVU46
 198 0042 0024     		movs	r4, #0
 696:Middlewares/ST/STM32_USB_Device_Library/Class/MIDI/Src/usbd_midi.c ****         
 199              		.loc 1 696 9 view .LVU47
 200 0044 29E0     		b	.L10
 201              	.L16:
 699:Middlewares/ST/STM32_USB_Device_Library/Class/MIDI/Src/usbd_midi.c ****                           (uint8_t *)&hmidi->IdleState,
 202              		.loc 1 699 9 is_stmt 1 view .LVU48
 203 0046 0122     		movs	r2, #1
 204 0048 291D     		adds	r1, r5, #4
 205              	.LVL12:
 699:Middlewares/ST/STM32_USB_Device_Library/Class/MIDI/Src/usbd_midi.c ****                           (uint8_t *)&hmidi->IdleState,
 206              		.loc 1 699 9 is_stmt 0 view .LVU49
 207 004a FFF7FEFF 		bl	USBD_CtlSendData
 208              	.LVL13:
 702:Middlewares/ST/STM32_USB_Device_Library/Class/MIDI/Src/usbd_midi.c ****         
 209              		.loc 1 702 9 is_stmt 1 view .LVU50
 734:Middlewares/ST/STM32_USB_Device_Library/Class/MIDI/Src/usbd_midi.c **** }
 210              		.loc 1 734 10 is_stmt 0 view .LVU51
 211 004e 0024     		movs	r4, #0
 702:Middlewares/ST/STM32_USB_Device_Library/Class/MIDI/Src/usbd_midi.c ****         
 212              		.loc 1 702 9 view .LVU52
 213 0050 23E0     		b	.L10
 214              	.LVL14:
 215              	.L11:
 705:Middlewares/ST/STM32_USB_Device_Library/Class/MIDI/Src/usbd_midi.c ****         return USBD_FAIL; 
 216              		.loc 1 705 9 is_stmt 1 view .LVU53
 217 0052 FFF7FEFF 		bl	USBD_CtlError
 218              	.LVL15:
 706:Middlewares/ST/STM32_USB_Device_Library/Class/MIDI/Src/usbd_midi.c ****     }
 219              		.loc 1 706 9 view .LVU54
 706:Middlewares/ST/STM32_USB_Device_Library/Class/MIDI/Src/usbd_midi.c ****     }
 220              		.loc 1 706 16 is_stmt 0 view .LVU55
 221 0056 0224     		movs	r4, #2
 222 0058 1FE0     		b	.L10
 223              	.LVL16:
 224              	.L9:
 711:Middlewares/ST/STM32_USB_Device_Library/Class/MIDI/Src/usbd_midi.c ****     {
 225              		.loc 1 711 5 is_stmt 1 view .LVU56
 711:Middlewares/ST/STM32_USB_Device_Library/Class/MIDI/Src/usbd_midi.c ****     {
 226              		.loc 1 711 16 is_stmt 0 view .LVU57
 227 005a 4B78     		ldrb	r3, [r1, #1]	@ zero_extendqisi2
 228 005c 0A2B     		cmp	r3, #10
 229 005e 12D0     		beq	.L17
 230 0060 0B2B     		cmp	r3, #11
 231 0062 16D0     		beq	.L18
 232 0064 062B     		cmp	r3, #6
 233 0066 18D1     		bne	.L10
 714:Middlewares/ST/STM32_USB_Device_Library/Class/MIDI/Src/usbd_midi.c ****         {
 234              		.loc 1 714 9 is_stmt 1 view .LVU58
 714:Middlewares/ST/STM32_USB_Device_Library/Class/MIDI/Src/usbd_midi.c ****         {
 235              		.loc 1 714 16 is_stmt 0 view .LVU59
 236 0068 4B88     		ldrh	r3, [r1, #2]
 714:Middlewares/ST/STM32_USB_Device_Library/Class/MIDI/Src/usbd_midi.c ****         {
 237              		.loc 1 714 30 view .LVU60
 238 006a 1B0A     		lsrs	r3, r3, #8
 714:Middlewares/ST/STM32_USB_Device_Library/Class/MIDI/Src/usbd_midi.c ****         {
ARM GAS  C:\Users\Kuanysh\AppData\Local\Temp\ccHztPRo.s 			page 21


 239              		.loc 1 714 11 view .LVU61
 240 006c 212B     		cmp	r3, #33
 241 006e 04D0     		beq	.L23
 676:Middlewares/ST/STM32_USB_Device_Library/Class/MIDI/Src/usbd_midi.c ****   USBD_MIDI_HandleTypeDef     *hmidi = pdev->pClassData;
 242              		.loc 1 676 13 view .LVU62
 243 0070 0021     		movs	r1, #0
 244              	.LVL17:
 675:Middlewares/ST/STM32_USB_Device_Library/Class/MIDI/Src/usbd_midi.c ****   uint8_t  *pbuf = NULL;
 245              		.loc 1 675 12 view .LVU63
 246 0072 0A46     		mov	r2, r1
 247              	.LVL18:
 248              	.L19:
 720:Middlewares/ST/STM32_USB_Device_Library/Class/MIDI/Src/usbd_midi.c ****         break;
 249              		.loc 1 720 9 is_stmt 1 view .LVU64
 250 0074 FFF7FEFF 		bl	USBD_CtlSendData
 251              	.LVL19:
 721:Middlewares/ST/STM32_USB_Device_Library/Class/MIDI/Src/usbd_midi.c ****         
 252              		.loc 1 721 9 view .LVU65
 253 0078 0FE0     		b	.L10
 254              	.LVL20:
 255              	.L23:
 716:Middlewares/ST/STM32_USB_Device_Library/Class/MIDI/Src/usbd_midi.c ****           len = MIN(USB_MIDI_DESC_SIZE , req->wLength);
 256              		.loc 1 716 11 view .LVU66
 717:Middlewares/ST/STM32_USB_Device_Library/Class/MIDI/Src/usbd_midi.c ****         }
 257              		.loc 1 717 11 view .LVU67
 717:Middlewares/ST/STM32_USB_Device_Library/Class/MIDI/Src/usbd_midi.c ****         }
 258              		.loc 1 717 17 is_stmt 0 view .LVU68
 259 007a CA88     		ldrh	r2, [r1, #6]
 717:Middlewares/ST/STM32_USB_Device_Library/Class/MIDI/Src/usbd_midi.c ****         }
 260              		.loc 1 717 15 view .LVU69
 261 007c 072A     		cmp	r2, #7
 262 007e 28BF     		it	cs
 263 0080 0722     		movcs	r2, #7
 264              	.LVL21:
 716:Middlewares/ST/STM32_USB_Device_Library/Class/MIDI/Src/usbd_midi.c ****           len = MIN(USB_MIDI_DESC_SIZE , req->wLength);
 265              		.loc 1 716 16 view .LVU70
 266 0082 0749     		ldr	r1, .L24
 267              	.LVL22:
 716:Middlewares/ST/STM32_USB_Device_Library/Class/MIDI/Src/usbd_midi.c ****           len = MIN(USB_MIDI_DESC_SIZE , req->wLength);
 268              		.loc 1 716 16 view .LVU71
 269 0084 F6E7     		b	.L19
 270              	.LVL23:
 271              	.L17:
 724:Middlewares/ST/STM32_USB_Device_Library/Class/MIDI/Src/usbd_midi.c ****                           (uint8_t *)&hmidi->AltSetting,
 272              		.loc 1 724 9 is_stmt 1 view .LVU72
 273 0086 0122     		movs	r2, #1
 274 0088 05F10801 		add	r1, r5, #8
 275              	.LVL24:
 724:Middlewares/ST/STM32_USB_Device_Library/Class/MIDI/Src/usbd_midi.c ****                           (uint8_t *)&hmidi->AltSetting,
 276              		.loc 1 724 9 is_stmt 0 view .LVU73
 277 008c FFF7FEFF 		bl	USBD_CtlSendData
 278              	.LVL25:
 727:Middlewares/ST/STM32_USB_Device_Library/Class/MIDI/Src/usbd_midi.c ****         
 279              		.loc 1 727 9 is_stmt 1 view .LVU74
 280 0090 03E0     		b	.L10
 281              	.LVL26:
 282              	.L18:
ARM GAS  C:\Users\Kuanysh\AppData\Local\Temp\ccHztPRo.s 			page 22


 730:Middlewares/ST/STM32_USB_Device_Library/Class/MIDI/Src/usbd_midi.c ****         break;
 283              		.loc 1 730 9 view .LVU75
 730:Middlewares/ST/STM32_USB_Device_Library/Class/MIDI/Src/usbd_midi.c ****         break;
 284              		.loc 1 730 29 is_stmt 0 view .LVU76
 285 0092 8B78     		ldrb	r3, [r1, #2]	@ zero_extendqisi2
 730:Middlewares/ST/STM32_USB_Device_Library/Class/MIDI/Src/usbd_midi.c ****         break;
 286              		.loc 1 730 27 view .LVU77
 287 0094 AB60     		str	r3, [r5, #8]
 731:Middlewares/ST/STM32_USB_Device_Library/Class/MIDI/Src/usbd_midi.c ****     }
 288              		.loc 1 731 9 is_stmt 1 view .LVU78
 289 0096 00E0     		b	.L10
 290              	.L20:
 679:Middlewares/ST/STM32_USB_Device_Library/Class/MIDI/Src/usbd_midi.c ****   {
 291              		.loc 1 679 3 is_stmt 0 view .LVU79
 292 0098 0024     		movs	r4, #0
 293              	.LVL27:
 294              	.L10:
 735:Middlewares/ST/STM32_USB_Device_Library/Class/MIDI/Src/usbd_midi.c **** 
 295              		.loc 1 735 1 view .LVU80
 296 009a 2046     		mov	r0, r4
 297 009c 38BD     		pop	{r3, r4, r5, pc}
 298              	.LVL28:
 299              	.L25:
 735:Middlewares/ST/STM32_USB_Device_Library/Class/MIDI/Src/usbd_midi.c **** 
 300              		.loc 1 735 1 view .LVU81
 301 009e 00BF     		.align	2
 302              	.L24:
 303 00a0 12000000 		.word	.LANCHOR0+18
 304              		.cfi_endproc
 305              	.LFE70:
 307              		.section	.text.USBD_MIDI_DeInit,"ax",%progbits
 308              		.align	1
 309              		.syntax unified
 310              		.thumb
 311              		.thumb_func
 313              	USBD_MIDI_DeInit:
 314              	.LVL29:
 315              	.LFB69:
 651:Middlewares/ST/STM32_USB_Device_Library/Class/MIDI/Src/usbd_midi.c ****   /* Close MIDI EPs */
 316              		.loc 1 651 1 is_stmt 1 view -0
 317              		.cfi_startproc
 318              		@ args = 0, pretend = 0, frame = 0
 319              		@ frame_needed = 0, uses_anonymous_args = 0
 651:Middlewares/ST/STM32_USB_Device_Library/Class/MIDI/Src/usbd_midi.c ****   /* Close MIDI EPs */
 320              		.loc 1 651 1 is_stmt 0 view .LVU83
 321 0000 10B5     		push	{r4, lr}
 322              	.LCFI1:
 323              		.cfi_def_cfa_offset 8
 324              		.cfi_offset 4, -8
 325              		.cfi_offset 14, -4
 326 0002 0446     		mov	r4, r0
 653:Middlewares/ST/STM32_USB_Device_Library/Class/MIDI/Src/usbd_midi.c ****   
 327              		.loc 1 653 3 is_stmt 1 view .LVU84
 328 0004 4021     		movs	r1, #64
 329              	.LVL30:
 653:Middlewares/ST/STM32_USB_Device_Library/Class/MIDI/Src/usbd_midi.c ****   
 330              		.loc 1 653 3 is_stmt 0 view .LVU85
ARM GAS  C:\Users\Kuanysh\AppData\Local\Temp\ccHztPRo.s 			page 23


 331 0006 FFF7FEFF 		bl	USBD_LL_CloseEP
 332              	.LVL31:
 656:Middlewares/ST/STM32_USB_Device_Library/Class/MIDI/Src/usbd_midi.c ****   {
 333              		.loc 1 656 3 is_stmt 1 view .LVU86
 656:Middlewares/ST/STM32_USB_Device_Library/Class/MIDI/Src/usbd_midi.c ****   {
 334              		.loc 1 656 10 is_stmt 0 view .LVU87
 335 000a D4F8B802 		ldr	r0, [r4, #696]
 656:Middlewares/ST/STM32_USB_Device_Library/Class/MIDI/Src/usbd_midi.c ****   {
 336              		.loc 1 656 5 view .LVU88
 337 000e 20B1     		cbz	r0, .L27
 658:Middlewares/ST/STM32_USB_Device_Library/Class/MIDI/Src/usbd_midi.c ****     pdev->pClassData = NULL;
 338              		.loc 1 658 5 is_stmt 1 view .LVU89
 339 0010 FFF7FEFF 		bl	USBD_static_free
 340              	.LVL32:
 659:Middlewares/ST/STM32_USB_Device_Library/Class/MIDI/Src/usbd_midi.c ****   } 
 341              		.loc 1 659 5 view .LVU90
 659:Middlewares/ST/STM32_USB_Device_Library/Class/MIDI/Src/usbd_midi.c ****   } 
 342              		.loc 1 659 22 is_stmt 0 view .LVU91
 343 0014 0023     		movs	r3, #0
 344 0016 C4F8B832 		str	r3, [r4, #696]
 345              	.L27:
 662:Middlewares/ST/STM32_USB_Device_Library/Class/MIDI/Src/usbd_midi.c **** }
 346              		.loc 1 662 3 is_stmt 1 view .LVU92
 663:Middlewares/ST/STM32_USB_Device_Library/Class/MIDI/Src/usbd_midi.c **** 
 347              		.loc 1 663 1 is_stmt 0 view .LVU93
 348 001a 0020     		movs	r0, #0
 349 001c 10BD     		pop	{r4, pc}
 663:Middlewares/ST/STM32_USB_Device_Library/Class/MIDI/Src/usbd_midi.c **** 
 350              		.loc 1 663 1 view .LVU94
 351              		.cfi_endproc
 352              	.LFE69:
 354              		.section	.text.USBD_MIDI_Init,"ax",%progbits
 355              		.align	1
 356              		.syntax unified
 357              		.thumb
 358              		.thumb_func
 360              	USBD_MIDI_Init:
 361              	.LVL33:
 362              	.LFB68:
 611:Middlewares/ST/STM32_USB_Device_Library/Class/MIDI/Src/usbd_midi.c ****   uint8_t ret = 0;
 363              		.loc 1 611 1 is_stmt 1 view -0
 364              		.cfi_startproc
 365              		@ args = 0, pretend = 0, frame = 0
 366              		@ frame_needed = 0, uses_anonymous_args = 0
 611:Middlewares/ST/STM32_USB_Device_Library/Class/MIDI/Src/usbd_midi.c ****   uint8_t ret = 0;
 367              		.loc 1 611 1 is_stmt 0 view .LVU96
 368 0000 10B5     		push	{r4, lr}
 369              	.LCFI2:
 370              		.cfi_def_cfa_offset 8
 371              		.cfi_offset 4, -8
 372              		.cfi_offset 14, -4
 373 0002 0446     		mov	r4, r0
 612:Middlewares/ST/STM32_USB_Device_Library/Class/MIDI/Src/usbd_midi.c ****   
 374              		.loc 1 612 3 is_stmt 1 view .LVU97
 375              	.LVL34:
 614:Middlewares/ST/STM32_USB_Device_Library/Class/MIDI/Src/usbd_midi.c ****                  MIDI_EPIN_ADDR,
 376              		.loc 1 614 3 view .LVU98
ARM GAS  C:\Users\Kuanysh\AppData\Local\Temp\ccHztPRo.s 			page 24


 377 0004 4023     		movs	r3, #64
 378 0006 0322     		movs	r2, #3
 379 0008 8121     		movs	r1, #129
 380              	.LVL35:
 614:Middlewares/ST/STM32_USB_Device_Library/Class/MIDI/Src/usbd_midi.c ****                  MIDI_EPIN_ADDR,
 381              		.loc 1 614 3 is_stmt 0 view .LVU99
 382 000a FFF7FEFF 		bl	USBD_LL_OpenEP
 383              	.LVL36:
 619:Middlewares/ST/STM32_USB_Device_Library/Class/MIDI/Src/usbd_midi.c ****                MIDI_EPOUT_ADDR,
 384              		.loc 1 619 3 is_stmt 1 view .LVU100
 385 000e 4023     		movs	r3, #64
 386 0010 0322     		movs	r2, #3
 387 0012 0121     		movs	r1, #1
 388 0014 2046     		mov	r0, r4
 389 0016 FFF7FEFF 		bl	USBD_LL_OpenEP
 390              	.LVL37:
 624:Middlewares/ST/STM32_USB_Device_Library/Class/MIDI/Src/usbd_midi.c ****                MIDI_EPOUT_ADDR,                                      
 391              		.loc 1 624 3 view .LVU101
 392 001a 4023     		movs	r3, #64
 393 001c 084A     		ldr	r2, .L33
 394 001e 0121     		movs	r1, #1
 395 0020 2046     		mov	r0, r4
 396 0022 FFF7FEFF 		bl	USBD_LL_PrepareReceive
 397              	.LVL38:
 629:Middlewares/ST/STM32_USB_Device_Library/Class/MIDI/Src/usbd_midi.c ****   
 398              		.loc 1 629 3 view .LVU102
 629:Middlewares/ST/STM32_USB_Device_Library/Class/MIDI/Src/usbd_midi.c ****   
 399              		.loc 1 629 22 is_stmt 0 view .LVU103
 400 0026 1020     		movs	r0, #16
 401 0028 FFF7FEFF 		bl	USBD_static_malloc
 402              	.LVL39:
 629:Middlewares/ST/STM32_USB_Device_Library/Class/MIDI/Src/usbd_midi.c ****   
 403              		.loc 1 629 20 view .LVU104
 404 002c C4F8B802 		str	r0, [r4, #696]
 631:Middlewares/ST/STM32_USB_Device_Library/Class/MIDI/Src/usbd_midi.c ****   {
 405              		.loc 1 631 3 is_stmt 1 view .LVU105
 631:Middlewares/ST/STM32_USB_Device_Library/Class/MIDI/Src/usbd_midi.c ****   {
 406              		.loc 1 631 5 is_stmt 0 view .LVU106
 407 0030 18B1     		cbz	r0, .L31
 637:Middlewares/ST/STM32_USB_Device_Library/Class/MIDI/Src/usbd_midi.c ****   }
 408              		.loc 1 637 5 is_stmt 1 view .LVU107
 637:Middlewares/ST/STM32_USB_Device_Library/Class/MIDI/Src/usbd_midi.c ****   }
 409              		.loc 1 637 58 is_stmt 0 view .LVU108
 410 0032 0023     		movs	r3, #0
 411 0034 0373     		strb	r3, [r0, #12]
 612:Middlewares/ST/STM32_USB_Device_Library/Class/MIDI/Src/usbd_midi.c ****   
 412              		.loc 1 612 11 view .LVU109
 413 0036 1846     		mov	r0, r3
 414              	.L30:
 415              	.LVL40:
 639:Middlewares/ST/STM32_USB_Device_Library/Class/MIDI/Src/usbd_midi.c **** }
 416              		.loc 1 639 3 is_stmt 1 view .LVU110
 640:Middlewares/ST/STM32_USB_Device_Library/Class/MIDI/Src/usbd_midi.c **** 
 417              		.loc 1 640 1 is_stmt 0 view .LVU111
 418 0038 10BD     		pop	{r4, pc}
 419              	.LVL41:
 420              	.L31:
ARM GAS  C:\Users\Kuanysh\AppData\Local\Temp\ccHztPRo.s 			page 25


 633:Middlewares/ST/STM32_USB_Device_Library/Class/MIDI/Src/usbd_midi.c ****   }
 421              		.loc 1 633 9 view .LVU112
 422 003a 0120     		movs	r0, #1
 423 003c FCE7     		b	.L30
 424              	.L34:
 425 003e 00BF     		.align	2
 426              	.L33:
 427 0040 00000000 		.word	.LANCHOR2
 428              		.cfi_endproc
 429              	.LFE68:
 431              		.section	.text.USBD_MIDI_GetDeviceState,"ax",%progbits
 432              		.align	1
 433              		.global	USBD_MIDI_GetDeviceState
 434              		.syntax unified
 435              		.thumb
 436              		.thumb_func
 438              	USBD_MIDI_GetDeviceState:
 439              	.LVL42:
 440              	.LFB71:
 744:Middlewares/ST/STM32_USB_Device_Library/Class/MIDI/Src/usbd_midi.c ****   return pdev->dev_state;
 441              		.loc 1 744 1 is_stmt 1 view -0
 442              		.cfi_startproc
 443              		@ args = 0, pretend = 0, frame = 0
 444              		@ frame_needed = 0, uses_anonymous_args = 0
 445              		@ link register save eliminated.
 745:Middlewares/ST/STM32_USB_Device_Library/Class/MIDI/Src/usbd_midi.c **** }
 446              		.loc 1 745 3 view .LVU114
 746:Middlewares/ST/STM32_USB_Device_Library/Class/MIDI/Src/usbd_midi.c **** 
 447              		.loc 1 746 1 is_stmt 0 view .LVU115
 448 0000 90F89C02 		ldrb	r0, [r0, #668]	@ zero_extendqisi2
 449              	.LVL43:
 746:Middlewares/ST/STM32_USB_Device_Library/Class/MIDI/Src/usbd_midi.c **** 
 450              		.loc 1 746 1 view .LVU116
 451 0004 7047     		bx	lr
 452              		.cfi_endproc
 453              	.LFE71:
 455              		.section	.text.USBD_MIDI_GetState,"ax",%progbits
 456              		.align	1
 457              		.global	USBD_MIDI_GetState
 458              		.syntax unified
 459              		.thumb
 460              		.thumb_func
 462              	USBD_MIDI_GetState:
 463              	.LVL44:
 464              	.LFB72:
 755:Middlewares/ST/STM32_USB_Device_Library/Class/MIDI/Src/usbd_midi.c ****   return ((USBD_MIDI_HandleTypeDef *)pdev->pClassData)->state;
 465              		.loc 1 755 1 is_stmt 1 view -0
 466              		.cfi_startproc
 467              		@ args = 0, pretend = 0, frame = 0
 468              		@ frame_needed = 0, uses_anonymous_args = 0
 469              		@ link register save eliminated.
 756:Middlewares/ST/STM32_USB_Device_Library/Class/MIDI/Src/usbd_midi.c **** }
 470              		.loc 1 756 3 view .LVU118
 756:Middlewares/ST/STM32_USB_Device_Library/Class/MIDI/Src/usbd_midi.c **** }
 471              		.loc 1 756 42 is_stmt 0 view .LVU119
 472 0000 D0F8B832 		ldr	r3, [r0, #696]
 757:Middlewares/ST/STM32_USB_Device_Library/Class/MIDI/Src/usbd_midi.c **** 
ARM GAS  C:\Users\Kuanysh\AppData\Local\Temp\ccHztPRo.s 			page 26


 473              		.loc 1 757 1 view .LVU120
 474 0004 187B     		ldrb	r0, [r3, #12]	@ zero_extendqisi2
 475              	.LVL45:
 757:Middlewares/ST/STM32_USB_Device_Library/Class/MIDI/Src/usbd_midi.c **** 
 476              		.loc 1 757 1 view .LVU121
 477 0006 7047     		bx	lr
 478              		.cfi_endproc
 479              	.LFE72:
 481              		.section	.text.USBD_MIDI_SendReport,"ax",%progbits
 482              		.align	1
 483              		.global	USBD_MIDI_SendReport
 484              		.syntax unified
 485              		.thumb
 486              		.thumb_func
 488              	USBD_MIDI_SendReport:
 489              	.LVL46:
 490              	.LFB73:
 769:Middlewares/ST/STM32_USB_Device_Library/Class/MIDI/Src/usbd_midi.c ****   USBD_MIDI_HandleTypeDef *hmidi = pdev->pClassData;
 491              		.loc 1 769 1 is_stmt 1 view -0
 492              		.cfi_startproc
 493              		@ args = 0, pretend = 0, frame = 0
 494              		@ frame_needed = 0, uses_anonymous_args = 0
 769:Middlewares/ST/STM32_USB_Device_Library/Class/MIDI/Src/usbd_midi.c ****   USBD_MIDI_HandleTypeDef *hmidi = pdev->pClassData;
 495              		.loc 1 769 1 is_stmt 0 view .LVU123
 496 0000 10B5     		push	{r4, lr}
 497              	.LCFI3:
 498              		.cfi_def_cfa_offset 8
 499              		.cfi_offset 4, -8
 500              		.cfi_offset 14, -4
 770:Middlewares/ST/STM32_USB_Device_Library/Class/MIDI/Src/usbd_midi.c ****   
 501              		.loc 1 770 3 is_stmt 1 view .LVU124
 770:Middlewares/ST/STM32_USB_Device_Library/Class/MIDI/Src/usbd_midi.c ****   
 502              		.loc 1 770 28 is_stmt 0 view .LVU125
 503 0002 D0F8B842 		ldr	r4, [r0, #696]
 504              	.LVL47:
 772:Middlewares/ST/STM32_USB_Device_Library/Class/MIDI/Src/usbd_midi.c ****   {
 505              		.loc 1 772 3 is_stmt 1 view .LVU126
 772:Middlewares/ST/STM32_USB_Device_Library/Class/MIDI/Src/usbd_midi.c ****   {
 506              		.loc 1 772 11 is_stmt 0 view .LVU127
 507 0006 90F89C32 		ldrb	r3, [r0, #668]	@ zero_extendqisi2
 772:Middlewares/ST/STM32_USB_Device_Library/Class/MIDI/Src/usbd_midi.c ****   {
 508              		.loc 1 772 6 view .LVU128
 509 000a 032B     		cmp	r3, #3
 510 000c 01D0     		beq	.L40
 511              	.LVL48:
 512              	.L38:
 780:Middlewares/ST/STM32_USB_Device_Library/Class/MIDI/Src/usbd_midi.c **** }
 513              		.loc 1 780 3 is_stmt 1 view .LVU129
 781:Middlewares/ST/STM32_USB_Device_Library/Class/MIDI/Src/usbd_midi.c **** 
 514              		.loc 1 781 1 is_stmt 0 view .LVU130
 515 000e 0020     		movs	r0, #0
 516 0010 10BD     		pop	{r4, pc}
 517              	.LVL49:
 518              	.L40:
 774:Middlewares/ST/STM32_USB_Device_Library/Class/MIDI/Src/usbd_midi.c ****     {
 519              		.loc 1 774 5 is_stmt 1 view .LVU131
 774:Middlewares/ST/STM32_USB_Device_Library/Class/MIDI/Src/usbd_midi.c ****     {
ARM GAS  C:\Users\Kuanysh\AppData\Local\Temp\ccHztPRo.s 			page 27


 520              		.loc 1 774 13 is_stmt 0 view .LVU132
 521 0012 237B     		ldrb	r3, [r4, #12]	@ zero_extendqisi2
 774:Middlewares/ST/STM32_USB_Device_Library/Class/MIDI/Src/usbd_midi.c ****     {
 522              		.loc 1 774 7 view .LVU133
 523 0014 002B     		cmp	r3, #0
 524 0016 FAD1     		bne	.L38
 776:Middlewares/ST/STM32_USB_Device_Library/Class/MIDI/Src/usbd_midi.c ****       USBD_LL_Transmit (pdev, MIDI_EPIN_ADDR, report, len);
 525              		.loc 1 776 7 is_stmt 1 view .LVU134
 776:Middlewares/ST/STM32_USB_Device_Library/Class/MIDI/Src/usbd_midi.c ****       USBD_LL_Transmit (pdev, MIDI_EPIN_ADDR, report, len);
 526              		.loc 1 776 20 is_stmt 0 view .LVU135
 527 0018 0123     		movs	r3, #1
 528 001a 2373     		strb	r3, [r4, #12]
 777:Middlewares/ST/STM32_USB_Device_Library/Class/MIDI/Src/usbd_midi.c ****     }
 529              		.loc 1 777 7 is_stmt 1 view .LVU136
 530 001c 1346     		mov	r3, r2
 531 001e 0A46     		mov	r2, r1
 532              	.LVL50:
 777:Middlewares/ST/STM32_USB_Device_Library/Class/MIDI/Src/usbd_midi.c ****     }
 533              		.loc 1 777 7 is_stmt 0 view .LVU137
 534 0020 8121     		movs	r1, #129
 535              	.LVL51:
 777:Middlewares/ST/STM32_USB_Device_Library/Class/MIDI/Src/usbd_midi.c ****     }
 536              		.loc 1 777 7 view .LVU138
 537 0022 FFF7FEFF 		bl	USBD_LL_Transmit
 538              	.LVL52:
 777:Middlewares/ST/STM32_USB_Device_Library/Class/MIDI/Src/usbd_midi.c ****     }
 539              		.loc 1 777 7 view .LVU139
 540 0026 F2E7     		b	.L38
 541              		.cfi_endproc
 542              	.LFE73:
 544              		.section	.text.USBD_MIDI_DeviceQualifierDescriptor,"ax",%progbits
 545              		.align	1
 546              		.global	USBD_MIDI_DeviceQualifierDescriptor
 547              		.syntax unified
 548              		.thumb
 549              		.thumb_func
 551              	USBD_MIDI_DeviceQualifierDescriptor:
 552              	.LVL53:
 553              	.LFB75:
 803:Middlewares/ST/STM32_USB_Device_Library/Class/MIDI/Src/usbd_midi.c ****   *length = sizeof (USBD_MIDI_DeviceQualifierDesc);
 554              		.loc 1 803 1 is_stmt 1 view -0
 555              		.cfi_startproc
 556              		@ args = 0, pretend = 0, frame = 0
 557              		@ frame_needed = 0, uses_anonymous_args = 0
 558              		@ link register save eliminated.
 804:Middlewares/ST/STM32_USB_Device_Library/Class/MIDI/Src/usbd_midi.c ****   return USBD_MIDI_DeviceQualifierDesc;
 559              		.loc 1 804 3 view .LVU141
 804:Middlewares/ST/STM32_USB_Device_Library/Class/MIDI/Src/usbd_midi.c ****   return USBD_MIDI_DeviceQualifierDesc;
 560              		.loc 1 804 11 is_stmt 0 view .LVU142
 561 0000 0A23     		movs	r3, #10
 562 0002 0380     		strh	r3, [r0]	@ movhi
 805:Middlewares/ST/STM32_USB_Device_Library/Class/MIDI/Src/usbd_midi.c **** }
 563              		.loc 1 805 3 is_stmt 1 view .LVU143
 806:Middlewares/ST/STM32_USB_Device_Library/Class/MIDI/Src/usbd_midi.c **** 
 564              		.loc 1 806 1 is_stmt 0 view .LVU144
 565 0004 0048     		ldr	r0, .L42
 566              	.LVL54:
ARM GAS  C:\Users\Kuanysh\AppData\Local\Temp\ccHztPRo.s 			page 28


 806:Middlewares/ST/STM32_USB_Device_Library/Class/MIDI/Src/usbd_midi.c **** 
 567              		.loc 1 806 1 view .LVU145
 568 0006 7047     		bx	lr
 569              	.L43:
 570              		.align	2
 571              	.L42:
 572 0008 00000000 		.word	.LANCHOR1
 573              		.cfi_endproc
 574              	.LFE75:
 576              		.section	.text.USBD_MIDI_DataInHandler,"ax",%progbits
 577              		.align	1
 578              		.weak	USBD_MIDI_DataInHandler
 579              		.syntax unified
 580              		.thumb
 581              		.thumb_func
 583              	USBD_MIDI_DataInHandler:
 584              	.LVL55:
 585              	.LFB78:
 852:Middlewares/ST/STM32_USB_Device_Library/Class/MIDI/Src/usbd_midi.c ****   // For user implementation.
 586              		.loc 1 852 1 is_stmt 1 view -0
 587              		.cfi_startproc
 588              		@ args = 0, pretend = 0, frame = 0
 589              		@ frame_needed = 0, uses_anonymous_args = 0
 590              		@ link register save eliminated.
 854:Middlewares/ST/STM32_USB_Device_Library/Class/MIDI/Src/usbd_midi.c **** 
 591              		.loc 1 854 1 view .LVU147
 592 0000 7047     		bx	lr
 593              		.cfi_endproc
 594              	.LFE78:
 596              		.section	.text.USBD_MIDI_DataOut,"ax",%progbits
 597              		.align	1
 598              		.syntax unified
 599              		.thumb
 600              		.thumb_func
 602              	USBD_MIDI_DataOut:
 603              	.LVL56:
 604              	.LFB77:
 834:Middlewares/ST/STM32_USB_Device_Library/Class/MIDI/Src/usbd_midi.c ****   if (epnum != (MIDI_EPOUT_ADDR & 0x0F)) return USBD_FAIL;
 605              		.loc 1 834 1 view -0
 606              		.cfi_startproc
 607              		@ args = 0, pretend = 0, frame = 0
 608              		@ frame_needed = 0, uses_anonymous_args = 0
 835:Middlewares/ST/STM32_USB_Device_Library/Class/MIDI/Src/usbd_midi.c **** 
 609              		.loc 1 835 3 view .LVU149
 835:Middlewares/ST/STM32_USB_Device_Library/Class/MIDI/Src/usbd_midi.c **** 
 610              		.loc 1 835 6 is_stmt 0 view .LVU150
 611 0000 0129     		cmp	r1, #1
 612 0002 01D0     		beq	.L52
 835:Middlewares/ST/STM32_USB_Device_Library/Class/MIDI/Src/usbd_midi.c **** 
 613              		.loc 1 835 49 view .LVU151
 614 0004 0220     		movs	r0, #2
 615              	.LVL57:
 844:Middlewares/ST/STM32_USB_Device_Library/Class/MIDI/Src/usbd_midi.c **** 
 616              		.loc 1 844 1 view .LVU152
 617 0006 7047     		bx	lr
 618              	.LVL58:
 619              	.L52:
ARM GAS  C:\Users\Kuanysh\AppData\Local\Temp\ccHztPRo.s 			page 29


 834:Middlewares/ST/STM32_USB_Device_Library/Class/MIDI/Src/usbd_midi.c ****   if (epnum != (MIDI_EPOUT_ADDR & 0x0F)) return USBD_FAIL;
 620              		.loc 1 834 1 view .LVU153
 621 0008 70B5     		push	{r4, r5, r6, lr}
 622              	.LCFI4:
 623              		.cfi_def_cfa_offset 16
 624              		.cfi_offset 4, -16
 625              		.cfi_offset 5, -12
 626              		.cfi_offset 6, -8
 627              		.cfi_offset 14, -4
 628 000a 0446     		mov	r4, r0
 837:Middlewares/ST/STM32_USB_Device_Library/Class/MIDI/Src/usbd_midi.c ****   
 629              		.loc 1 837 3 is_stmt 1 view .LVU154
 630 000c 094D     		ldr	r5, .L53
 631 000e 4021     		movs	r1, #64
 632              	.LVL59:
 837:Middlewares/ST/STM32_USB_Device_Library/Class/MIDI/Src/usbd_midi.c ****   
 633              		.loc 1 837 3 is_stmt 0 view .LVU155
 634 0010 2846     		mov	r0, r5
 635              	.LVL60:
 837:Middlewares/ST/STM32_USB_Device_Library/Class/MIDI/Src/usbd_midi.c ****   
 636              		.loc 1 837 3 view .LVU156
 637 0012 FFF7FEFF 		bl	USBD_MIDI_DataInHandler
 638              	.LVL61:
 839:Middlewares/ST/STM32_USB_Device_Library/Class/MIDI/Src/usbd_midi.c ****   
 639              		.loc 1 839 3 is_stmt 1 view .LVU157
 640 0016 4026     		movs	r6, #64
 641 0018 3246     		mov	r2, r6
 642 001a 0021     		movs	r1, #0
 643 001c 2846     		mov	r0, r5
 644 001e FFF7FEFF 		bl	memset
 645              	.LVL62:
 841:Middlewares/ST/STM32_USB_Device_Library/Class/MIDI/Src/usbd_midi.c ****   
 646              		.loc 1 841 3 view .LVU158
 647 0022 3346     		mov	r3, r6
 648 0024 2A46     		mov	r2, r5
 649 0026 0121     		movs	r1, #1
 650 0028 2046     		mov	r0, r4
 651 002a FFF7FEFF 		bl	USBD_LL_PrepareReceive
 652              	.LVL63:
 843:Middlewares/ST/STM32_USB_Device_Library/Class/MIDI/Src/usbd_midi.c **** }
 653              		.loc 1 843 3 view .LVU159
 843:Middlewares/ST/STM32_USB_Device_Library/Class/MIDI/Src/usbd_midi.c **** }
 654              		.loc 1 843 10 is_stmt 0 view .LVU160
 655 002e 0020     		movs	r0, #0
 844:Middlewares/ST/STM32_USB_Device_Library/Class/MIDI/Src/usbd_midi.c **** 
 656              		.loc 1 844 1 view .LVU161
 657 0030 70BD     		pop	{r4, r5, r6, pc}
 658              	.LVL64:
 659              	.L54:
 844:Middlewares/ST/STM32_USB_Device_Library/Class/MIDI/Src/usbd_midi.c **** 
 660              		.loc 1 844 1 view .LVU162
 661 0032 00BF     		.align	2
 662              	.L53:
 663 0034 00000000 		.word	.LANCHOR2
 664              		.cfi_endproc
 665              	.LFE77:
 667              		.global	USBD_MIDI
ARM GAS  C:\Users\Kuanysh\AppData\Local\Temp\ccHztPRo.s 			page 30


 668              		.section	.bss.usb_rx_buffer,"aw",%nobits
 669              		.align	2
 670              		.set	.LANCHOR2,. + 0
 673              	usb_rx_buffer:
 674 0000 00000000 		.space	64
 674      00000000 
 674      00000000 
 674      00000000 
 674      00000000 
 675              		.section	.data.USBD_MIDI,"aw"
 676              		.align	2
 679              	USBD_MIDI:
 680 0000 00000000 		.word	USBD_MIDI_Init
 681 0004 00000000 		.word	USBD_MIDI_DeInit
 682 0008 00000000 		.word	USBD_MIDI_Setup
 683 000c 00000000 		.word	0
 684 0010 00000000 		.word	0
 685 0014 00000000 		.word	USBD_MIDI_DataIn
 686 0018 00000000 		.word	USBD_MIDI_DataOut
 687 001c 00000000 		.word	0
 688 0020 00000000 		.word	0
 689 0024 00000000 		.word	0
 690 0028 00000000 		.word	USBD_MIDI_GetCfgDesc
 691 002c 00000000 		.word	USBD_MIDI_GetCfgDesc
 692 0030 00000000 		.word	USBD_MIDI_GetCfgDesc
 693 0034 00000000 		.word	USBD_MIDI_GetDeviceQualifierDesc
 694              		.section	.data.USBD_MIDI_CfgDesc,"aw"
 695              		.align	2
 696              		.set	.LANCHOR0,. + 0
 699              	USBD_MIDI_CfgDesc:
 700 0000 09027300 		.ascii	"\011\002s\000\001\001\000\200\372\011\004\000\000\002"
 700      01010080 
 700      FA090400 
 700      0002
 701 000e 01030000 		.ascii	"\001\003\000\000\007$\001\000\001a\000\006$\002\002"
 701      07240100 
 701      01610006 
 701      240202
 702 001d 01000924 		.ascii	"\001\000\011$\003\001\002\001\001\001\000\006$\002\001"
 702      03010201 
 702      01010006 
 702      240201
 703 002c 11000924 		.ascii	"\021\000\011$\003\002\022\001\021\001\000\006$\002\001"
 703      03021201 
 703      11010006 
 703      240201
 704 003b 13000924 		.ascii	"\023\000\011$\003\002\024\001\023\001\000\006$\002\001"
 704      03021401 
 704      13010006 
 704      240201
 705 004a 15000924 		.ascii	"\025\000\011$\003\002\026\001\025\001\000\011\005\001"
 705      03021601 
 705      15010009 
 705      0501
 706 0058 02400000 		.ascii	"\002@\000\000\000\000\007%\001\003\021\023\025\011\005"
 706      00000725 
 706      01031113 
ARM GAS  C:\Users\Kuanysh\AppData\Local\Temp\ccHztPRo.s 			page 31


 706      150905
 707 0067 81024000 		.ascii	"\201\002@\000\000\000\000\005%\001\001\002"
 707      00000005 
 707      25010102 
 708              		.section	.data.USBD_MIDI_DeviceQualifierDesc,"aw"
 709              		.align	2
 710              		.set	.LANCHOR1,. + 0
 713              	USBD_MIDI_DeviceQualifierDesc:
 714 0000 0A060002 		.ascii	"\012\006\000\002\000\000\000@\001\000"
 714      00000040 
 714      0100
 715              		.text
 716              	.Letext0:
 717              		.file 2 "c:\\program files (x86)\\gnu arm embedded toolchain\\10 2021.10\\arm-none-eabi\\include\\
 718              		.file 3 "c:\\program files (x86)\\gnu arm embedded toolchain\\10 2021.10\\arm-none-eabi\\include\\
 719              		.file 4 "Middlewares/ST/STM32_USB_Device_Library/Core/Inc/usbd_def.h"
 720              		.file 5 "Middlewares/ST/STM32_USB_Device_Library/Class/MIDI/Inc/usbd_midi.h"
 721              		.file 6 "Middlewares/ST/STM32_USB_Device_Library/Core/Inc/usbd_core.h"
 722              		.file 7 "Middlewares/ST/STM32_USB_Device_Library/Core/Inc/usbd_ioreq.h"
 723              		.file 8 "Middlewares/ST/STM32_USB_Device_Library/Core/Inc/usbd_ctlreq.h"
 724              		.file 9 "USB_DEVICE/Target/usbd_conf.h"
 725              		.file 10 "<built-in>"
ARM GAS  C:\Users\Kuanysh\AppData\Local\Temp\ccHztPRo.s 			page 32


DEFINED SYMBOLS
                            *ABS*:00000000 usbd_midi.c
C:\Users\Kuanysh\AppData\Local\Temp\ccHztPRo.s:18     .text.USBD_MIDI_GetCfgDesc:00000000 $t
C:\Users\Kuanysh\AppData\Local\Temp\ccHztPRo.s:23     .text.USBD_MIDI_GetCfgDesc:00000000 USBD_MIDI_GetCfgDesc
C:\Users\Kuanysh\AppData\Local\Temp\ccHztPRo.s:45     .text.USBD_MIDI_GetCfgDesc:00000008 $d
C:\Users\Kuanysh\AppData\Local\Temp\ccHztPRo.s:50     .text.USBD_MIDI_DataIn:00000000 $t
C:\Users\Kuanysh\AppData\Local\Temp\ccHztPRo.s:55     .text.USBD_MIDI_DataIn:00000000 USBD_MIDI_DataIn
C:\Users\Kuanysh\AppData\Local\Temp\ccHztPRo.s:78     .text.USBD_MIDI_GetDeviceQualifierDesc:00000000 $t
C:\Users\Kuanysh\AppData\Local\Temp\ccHztPRo.s:83     .text.USBD_MIDI_GetDeviceQualifierDesc:00000000 USBD_MIDI_GetDeviceQualifierDesc
C:\Users\Kuanysh\AppData\Local\Temp\ccHztPRo.s:104    .text.USBD_MIDI_GetDeviceQualifierDesc:00000008 $d
C:\Users\Kuanysh\AppData\Local\Temp\ccHztPRo.s:109    .text.USBD_MIDI_Setup:00000000 $t
C:\Users\Kuanysh\AppData\Local\Temp\ccHztPRo.s:114    .text.USBD_MIDI_Setup:00000000 USBD_MIDI_Setup
C:\Users\Kuanysh\AppData\Local\Temp\ccHztPRo.s:152    .text.USBD_MIDI_Setup:0000001e $d
C:\Users\Kuanysh\AppData\Local\Temp\ccHztPRo.s:162    .text.USBD_MIDI_Setup:00000028 $t
C:\Users\Kuanysh\AppData\Local\Temp\ccHztPRo.s:303    .text.USBD_MIDI_Setup:000000a0 $d
C:\Users\Kuanysh\AppData\Local\Temp\ccHztPRo.s:308    .text.USBD_MIDI_DeInit:00000000 $t
C:\Users\Kuanysh\AppData\Local\Temp\ccHztPRo.s:313    .text.USBD_MIDI_DeInit:00000000 USBD_MIDI_DeInit
C:\Users\Kuanysh\AppData\Local\Temp\ccHztPRo.s:355    .text.USBD_MIDI_Init:00000000 $t
C:\Users\Kuanysh\AppData\Local\Temp\ccHztPRo.s:360    .text.USBD_MIDI_Init:00000000 USBD_MIDI_Init
C:\Users\Kuanysh\AppData\Local\Temp\ccHztPRo.s:427    .text.USBD_MIDI_Init:00000040 $d
C:\Users\Kuanysh\AppData\Local\Temp\ccHztPRo.s:432    .text.USBD_MIDI_GetDeviceState:00000000 $t
C:\Users\Kuanysh\AppData\Local\Temp\ccHztPRo.s:438    .text.USBD_MIDI_GetDeviceState:00000000 USBD_MIDI_GetDeviceState
C:\Users\Kuanysh\AppData\Local\Temp\ccHztPRo.s:456    .text.USBD_MIDI_GetState:00000000 $t
C:\Users\Kuanysh\AppData\Local\Temp\ccHztPRo.s:462    .text.USBD_MIDI_GetState:00000000 USBD_MIDI_GetState
C:\Users\Kuanysh\AppData\Local\Temp\ccHztPRo.s:482    .text.USBD_MIDI_SendReport:00000000 $t
C:\Users\Kuanysh\AppData\Local\Temp\ccHztPRo.s:488    .text.USBD_MIDI_SendReport:00000000 USBD_MIDI_SendReport
C:\Users\Kuanysh\AppData\Local\Temp\ccHztPRo.s:545    .text.USBD_MIDI_DeviceQualifierDescriptor:00000000 $t
C:\Users\Kuanysh\AppData\Local\Temp\ccHztPRo.s:551    .text.USBD_MIDI_DeviceQualifierDescriptor:00000000 USBD_MIDI_DeviceQualifierDescriptor
C:\Users\Kuanysh\AppData\Local\Temp\ccHztPRo.s:572    .text.USBD_MIDI_DeviceQualifierDescriptor:00000008 $d
C:\Users\Kuanysh\AppData\Local\Temp\ccHztPRo.s:577    .text.USBD_MIDI_DataInHandler:00000000 $t
C:\Users\Kuanysh\AppData\Local\Temp\ccHztPRo.s:583    .text.USBD_MIDI_DataInHandler:00000000 USBD_MIDI_DataInHandler
C:\Users\Kuanysh\AppData\Local\Temp\ccHztPRo.s:597    .text.USBD_MIDI_DataOut:00000000 $t
C:\Users\Kuanysh\AppData\Local\Temp\ccHztPRo.s:602    .text.USBD_MIDI_DataOut:00000000 USBD_MIDI_DataOut
C:\Users\Kuanysh\AppData\Local\Temp\ccHztPRo.s:663    .text.USBD_MIDI_DataOut:00000034 $d
C:\Users\Kuanysh\AppData\Local\Temp\ccHztPRo.s:679    .data.USBD_MIDI:00000000 USBD_MIDI
C:\Users\Kuanysh\AppData\Local\Temp\ccHztPRo.s:669    .bss.usb_rx_buffer:00000000 $d
C:\Users\Kuanysh\AppData\Local\Temp\ccHztPRo.s:673    .bss.usb_rx_buffer:00000000 usb_rx_buffer
C:\Users\Kuanysh\AppData\Local\Temp\ccHztPRo.s:676    .data.USBD_MIDI:00000000 $d
C:\Users\Kuanysh\AppData\Local\Temp\ccHztPRo.s:695    .data.USBD_MIDI_CfgDesc:00000000 $d
C:\Users\Kuanysh\AppData\Local\Temp\ccHztPRo.s:699    .data.USBD_MIDI_CfgDesc:00000000 USBD_MIDI_CfgDesc
C:\Users\Kuanysh\AppData\Local\Temp\ccHztPRo.s:709    .data.USBD_MIDI_DeviceQualifierDesc:00000000 $d
C:\Users\Kuanysh\AppData\Local\Temp\ccHztPRo.s:713    .data.USBD_MIDI_DeviceQualifierDesc:00000000 USBD_MIDI_DeviceQualifierDesc

UNDEFINED SYMBOLS
USBD_CtlSendData
USBD_CtlError
USBD_LL_CloseEP
USBD_static_free
USBD_LL_OpenEP
USBD_LL_PrepareReceive
USBD_static_malloc
USBD_LL_Transmit
memset
